GAS LISTING /var/folders/m6/h69rbtm16qg9rvj4_lszybhm0000gn/T//ccjkuZLT.s 			page 1


   1               		.file	"firefly.c"
   2               	__SREG__ = 0x3f
   3               	__SP_H__ = 0x3e
   4               	__SP_L__ = 0x3d
   5               	__CCP__  = 0x34
   6               	__tmp_reg__ = 0
   7               	__zero_reg__ = 1
  15               	.Ltext0:
  16               	.global	__vector_12
  18               	__vector_12:
  19               	.LFB2:
  20               	.LM1:
  21 0000 1F92      		push __zero_reg__
  22 0002 0F92      		push r0
  23 0004 0FB6      		in r0,__SREG__
  24 0006 0F92      		push r0
  25 0008 1124      		clr __zero_reg__
  26 000a 8F93      		push r24
  27 000c 9F93      		push r25
  28               	/* prologue: Signal */
  29               	/* frame size = 0 */
  30               	.LBB13:
  31               	.LBB14:
  32               	.LM2:
  33 000e 8DEE      		ldi r24,lo8(-19)
  34 0010 88BB      		out 56-32,r24
  35               	.LBB15:
  36               	.LBB16:
  37               	.LM3:
  38 0012 80B5      		in r24,64-32
  39 0014 8E7F      		andi r24,lo8(-2)
  40 0016 80BD      		out 64-32,r24
  41               	.LM4:
  42 0018 80E2      		ldi r24,lo8(32)
  43 001a 87B9      		out 39-32,r24
  44               	.L2:
  45               	.LM5:
  46 001c 3699      		sbic 38-32,6
  47 001e 00C0      		rjmp .L2
  48               	.LM6:
  49 0020 80EC      		ldi r24,lo8(-64)
  50 0022 86B9      		out 38-32,r24
  51               	.L3:
  52               	.LM7:
  53 0024 3699      		sbic 38-32,6
  54 0026 00C0      		rjmp .L3
  55               	.LM8:
  56 0028 85B1      		in r24,37-32
  57               	.LVL0:
  58               	.LM9:
  59 002a 3798      		cbi 38-32,7
  60               	.LM10:
  61 002c 90B5      		in r25,64-32
  62 002e 9160      		ori r25,lo8(1)
  63 0030 90BD      		out 64-32,r25
  64               	.LBE16:
  65               	.LBE15:
GAS LISTING /var/folders/m6/h69rbtm16qg9rvj4_lszybhm0000gn/T//ccjkuZLT.s 			page 2


  66               	.LM11:
  67 0032 9DEC      		ldi r25,lo8(-51)
  68 0034 98BB      		out 56-32,r25
  69               	.LM12:
  70 0036 873E      		cpi r24,lo8(-25)
  71 0038 00F4      		brsh .L4
  72 003a 8091 0000 		lds r24,force_dark
  73               	.LVL1:
  74 003e 8823      		tst r24
  75 0040 01F0      		breq .L5
  76               	.LVL2:
  77               	.L4:
  78               	.LM13:
  79 0042 8091 0000 		lds r24,debounce.1682
  80               	.LVL3:
  81 0046 8150      		subi r24,lo8(-(-1))
  82 0048 8093 0000 		sts debounce.1682,r24
  83 004c 8F5F      		subi r24,lo8(-(1))
  84 004e 01F4      		brne .L6
  85               	.LM14:
  86 0050 8AE0      		ldi r24,lo8(10)
  87 0052 8093 0000 		sts debounce.1682,r24
  88               	.LM15:
  89 0056 81E0      		ldi r24,lo8(1)
  90 0058 8093 0000 		sts is_dark,r24
  91 005c 00C0      		rjmp .L6
  92               	.L5:
  93               	.LM16:
  94 005e 8AE0      		ldi r24,lo8(10)
  95 0060 8093 0000 		sts debounce.1682,r24
  96               	.LM17:
  97 0064 1092 0000 		sts is_dark,__zero_reg__
  98               	.L6:
  99               	.LBE14:
 100               	.LBE13:
 101               	.LM18:
 102 0068 899B      		sbis 49-32,1
 103 006a 00C0      		rjmp .L7
 104 006c 8091 0000 		lds r24,ch1restcount
 105 0070 8150      		subi r24,lo8(-(-1))
 106 0072 8093 0000 		sts ch1restcount,r24
 107 0076 8091 0000 		lds r24,ch1restcount
 108 007a 8823      		tst r24
 109 007c 01F4      		brne .L7
 110 007e 8998      		cbi 49-32,1
 111               	.L7:
 112               	.LM19:
 113 0080 8B9B      		sbis 49-32,3
 114 0082 00C0      		rjmp .L8
 115 0084 8091 0000 		lds r24,ch2restcount
 116 0088 8150      		subi r24,lo8(-(-1))
 117 008a 8093 0000 		sts ch2restcount,r24
 118 008e 8091 0000 		lds r24,ch2restcount
 119 0092 8823      		tst r24
 120 0094 01F4      		brne .L8
 121 0096 8B98      		cbi 49-32,3
 122               	.L8:
GAS LISTING /var/folders/m6/h69rbtm16qg9rvj4_lszybhm0000gn/T//ccjkuZLT.s 			page 3


 123               	.LM20:
 124 0098 8C99      		sbic 49-32,4
 125 009a 00C0      		rjmp .L10
 126 009c 8091 0000 		lds r24,mood_count
 127 00a0 9091 0000 		lds r25,(mood_count)+1
 128 00a4 0197      		sbiw r24,1
 129 00a6 9093 0000 		sts (mood_count)+1,r25
 130 00aa 8093 0000 		sts mood_count,r24
 131 00ae 892B      		or r24,r25
 132 00b0 01F4      		brne .L10
 133 00b2 8C9A      		sbi 49-32,4
 134               	.L10:
 135               	/* epilogue start */
 136               	.LM21:
 137 00b4 9F91      		pop r25
 138 00b6 8F91      		pop r24
 139 00b8 0F90      		pop r0
 140 00ba 0FBE      		out __SREG__,r0
 141 00bc 0F90      		pop r0
 142 00be 1F90      		pop __zero_reg__
 143 00c0 1895      		reti
 144               	.LFE2:
 146               	.global	__vector_10
 148               	__vector_10:
 149               	.LFB3:
 150               	.LM22:
 151 00c2 1F92      		push __zero_reg__
 152 00c4 0F92      		push r0
 153 00c6 0FB6      		in r0,__SREG__
 154 00c8 0F92      		push r0
 155 00ca 1124      		clr __zero_reg__
 156 00cc 8F93      		push r24
 157               	/* prologue: Signal */
 158               	/* frame size = 0 */
 159               	.LM23:
 160 00ce 8091 0000 		lds r24,waiting_for_dark
 161 00d2 8823      		tst r24
 162 00d4 01F0      		breq .+2
 163 00d6 00C0      		rjmp .L27
 164               	.LM24:
 165 00d8 88BA      		out 56-32,r8
 166               	.LM25:
 167 00da 8091 0000 		lds r24,x.1435
 168 00de 8150      		subi r24,lo8(-(-1))
 169 00e0 8093 0000 		sts x.1435,r24
 170 00e4 8F5F      		subi r24,lo8(-(1))
 171 00e6 01F0      		breq .+2
 172 00e8 00C0      		rjmp .L15
 173               	.LM26:
 174 00ea 889B      		sbis 49-32,0
 175 00ec 00C0      		rjmp .L16
 176               	.LM27:
 177 00ee 8E9B      		sbis 49-32,6
 178 00f0 00C0      		rjmp .L17
 179               	.LM28:
 180 00f2 8091 0000 		lds r24,ch1nextnote
 181 00f6 282E      		mov r2,r24
GAS LISTING /var/folders/m6/h69rbtm16qg9rvj4_lszybhm0000gn/T//ccjkuZLT.s 			page 4


 182               	.LM29:
 183 00f8 8E98      		cbi 49-32,6
 184 00fa 00C0      		rjmp .L18
 185               	.L17:
 186               	.LM30:
 187 00fc 2224      		clr r2
 188               	.LM31:
 189 00fe 8091 0000 		lds r24,ch1restcount
 190 0102 8823      		tst r24
 191 0104 01F0      		breq .L18
 192               	.LM32:
 193 0106 8898      		cbi 49-32,0
 194               	.LM33:
 195 0108 899A      		sbi 49-32,1
 196 010a 00C0      		rjmp .L18
 197               	.L16:
 198               	.LM34:
 199 010c 8999      		sbic 49-32,1
 200 010e 00C0      		rjmp .L18
 201 0110 8E9B      		sbis 49-32,6
 202 0112 00C0      		rjmp .L18
 203               	.LM35:
 204 0114 8091 0000 		lds r24,ch1nextnote
 205 0118 282E      		mov r2,r24
 206               	.LM36:
 207 011a 8E98      		cbi 49-32,6
 208               	.LM37:
 209 011c 889A      		sbi 49-32,0
 210               	.L18:
 211               	.LM38:
 212 011e 8A9B      		sbis 49-32,2
 213 0120 00C0      		rjmp .L19
 214               	.LM39:
 215 0122 8F9B      		sbis 49-32,7
 216 0124 00C0      		rjmp .L20
 217               	.LM40:
 218 0126 8091 0000 		lds r24,ch2nextnote
 219 012a 382E      		mov r3,r24
 220               	.LM41:
 221 012c 8F98      		cbi 49-32,7
 222 012e 00C0      		rjmp .L21
 223               	.L20:
 224               	.LM42:
 225 0130 3324      		clr r3
 226               	.LM43:
 227 0132 8091 0000 		lds r24,ch2restcount
 228 0136 8823      		tst r24
 229 0138 01F0      		breq .L21
 230               	.LM44:
 231 013a 8A98      		cbi 49-32,2
 232               	.LM45:
 233 013c 8B9A      		sbi 49-32,3
 234 013e 00C0      		rjmp .L21
 235               	.L19:
 236               	.LM46:
 237 0140 8B99      		sbic 49-32,3
 238 0142 00C0      		rjmp .L21
GAS LISTING /var/folders/m6/h69rbtm16qg9rvj4_lszybhm0000gn/T//ccjkuZLT.s 			page 5


 239 0144 8F9B      		sbis 49-32,7
 240 0146 00C0      		rjmp .L21
 241               	.LM47:
 242 0148 8091 0000 		lds r24,ch2nextnote
 243 014c 382E      		mov r3,r24
 244               	.LM48:
 245 014e 8F98      		cbi 49-32,7
 246               	.LM49:
 247 0150 8A9A      		sbi 49-32,2
 248               	.L21:
 249               	.LM50:
 250 0152 8899      		sbic 49-32,0
 251 0154 4424      		clr r4
 252               	.L22:
 253               	.LM51:
 254 0156 8A99      		sbic 49-32,2
 255 0158 5524      		clr r5
 256               	.L23:
 257               	.LM52:
 258 015a 8899      		sbic 49-32,0
 259 015c 00C0      		rjmp .L24
 260 015e 8A9B      		sbis 49-32,2
 261 0160 00C0      		rjmp .L25
 262               	.L24:
 263               	.LM53:
 264 0162 8091 0000 		lds r24,masterpinmask
 265 0166 0F2E      		mov __tmp_reg__,r31
 266 0168 FDEC      		ldi r31,lo8(-51)
 267 016a 8F2E      		mov r8,r31
 268 016c F02D      		mov r31,__tmp_reg__
 269 016e 882A      		or r8,r24
 270 0170 00C0      		rjmp .L15
 271               	.L25:
 272               	.LM54:
 273 0172 8DEC      		ldi r24,lo8(-51)
 274 0174 882E      		mov r8,r24
 275               	.L15:
 276               	.LM55:
 277 0176 889B      		sbis 49-32,0
 278 0178 00C0      		rjmp .L26
 279               	/* #APP */
 280               	 ;  171 "firefly.c" 1
 281 017a 062C      		mov     __tmp_reg__, r6
 282 017c 27FA      		bst     r2, 7
 283 017e 420C      		add     r4, r2
 284 0180 03F0      		brvs    von_320
 285 0182 06F0      		brts    turnon_320
 286 0184 00C0      		rjmp    turnoff_320
 287               	von_320:
 288 0186 06F0      		brts    turnoff_320
 289               	turnon_320:
 290 0188 0094      		com     __tmp_reg__
 291 018a 8020      		and     r8, __tmp_reg__
 292 018c 00C0      	rjmp    done_320
 293               	turnoff_320:
 294 018e 8028      		or      r8, __tmp_reg__
 295               		done_320:
GAS LISTING /var/folders/m6/h69rbtm16qg9rvj4_lszybhm0000gn/T//ccjkuZLT.s 			page 6


 296               		
 297               	 ;  0 "" 2
 298               	/* #NOAPP */
 299               	.L26:
 300               	.LM56:
 301 0190 8A9B      		sbis 49-32,2
 302 0192 00C0      		rjmp .L27
 303               	/* #APP */
 304               	 ;  172 "firefly.c" 1
 305 0194 072C      		mov     __tmp_reg__, r7
 306 0196 37FA      		bst     r3, 7
 307 0198 530C      		add     r5, r3
 308 019a 03F0      		brvs    von_328
 309 019c 06F0      		brts    turnon_328
 310 019e 00C0      		rjmp    turnoff_328
 311               	von_328:
 312 01a0 06F0      		brts    turnoff_328
 313               	turnon_328:
 314 01a2 0094      		com     __tmp_reg__
 315 01a4 8020      		and     r8, __tmp_reg__
 316 01a6 00C0      	rjmp    done_328
 317               	turnoff_328:
 318 01a8 8028      		or      r8, __tmp_reg__
 319               		done_328:
 320               		
 321               	 ;  0 "" 2
 322               	/* #NOAPP */
 323               	.L27:
 324               	/* epilogue start */
 325               	.LM57:
 326 01aa 8F91      		pop r24
 327 01ac 0F90      		pop r0
 328 01ae 0FBE      		out __SREG__,r0
 329 01b0 0F90      		pop r0
 330 01b2 1F90      		pop __zero_reg__
 331 01b4 1895      		reti
 332               	.LFE3:
 334               	.global	showbootup
 336               	showbootup:
 337               	.LFB5:
 338               	.LM58:
 339 01b6 0F93      		push r16
 340 01b8 1F93      		push r17
 341 01ba CF93      		push r28
 342 01bc DF93      		push r29
 343               	/* prologue: function */
 344               	/* frame size = 0 */
 345               	.LM59:
 346 01be 4091 0000 		lds r20,bootsongs
 347 01c2 5091 0000 		lds r21,(bootsongs)+1
 348               	.LVL4:
 349               	.LM60:
 350               	/* #APP */
 351               	 ;  231 "firefly.c" 1
 352 01c6 F894      		cli
 353               	 ;  0 "" 2
 354               	.LM61:
GAS LISTING /var/folders/m6/h69rbtm16qg9rvj4_lszybhm0000gn/T//ccjkuZLT.s 			page 7


 355               	/* #NOAPP */
 356 01c8 82E0      		ldi r24,lo8(2)
 357 01ca 8093 0000 		sts ch1restcount,r24
 358               	.LM62:
 359 01ce 899A      		sbi 49-32,1
 360               	.LM63:
 361               	/* #APP */
 362               	 ;  234 "firefly.c" 1
 363 01d0 7894      		sei
 364               	 ;  0 "" 2
 365               	.LM64:
 366               	/* #NOAPP */
 367 01d2 FA01      		movw r30,r20
 368 01d4 6081      		ld r22,Z
 369 01d6 7181      		ldd r23,Z+1
 370 01d8 C0E0      		ldi r28,lo8(masterpins.1519)
 371 01da D0E0      		ldi r29,hi8(masterpins.1519)
 372               	.LVL5:
 373               	.L34:
 374               	.LM65:
 375 01dc 8881      		ld r24,Y
 376 01de 8093 0000 		sts masterpinmask,r24
 377 01e2 A0E0      		ldi r26,lo8(ch1pins.1520)
 378 01e4 B0E0      		ldi r27,hi8(ch1pins.1520)
 379               	.LVL6:
 380               	.L33:
 381               	.LM66:
 382 01e6 9C91      		ld r25,X
 383 01e8 20E0      		ldi r18,lo8(0)
 384 01ea 30E0      		ldi r19,hi8(0)
 385 01ec 00C0      		rjmp .L29
 386               	.L32:
 387               	.LBB17:
 388               	.LM67:
 389 01ee FA01      		movw r30,r20
 390 01f0 0281      		ldd r16,Z+2
 391 01f2 1381      		ldd r17,Z+3
 392 01f4 020F      		add r16,r18
 393 01f6 131F      		adc r17,r19
 394 01f8 F801      		movw r30,r16
 395               	/* #APP */
 396               	 ;  243 "firefly.c" 1
 397 01fa 8491      		lpm r24, Z
 398               		
 399               	 ;  0 "" 2
 400               	/* #NOAPP */
 401               	.LBE17:
 402 01fc 8093 0000 		sts ch1nextnote,r24
 403               	.LM68:
 404 0200 8E9A      		sbi 49-32,6
 405 0202 00C0      		rjmp .L30
 406               	.L31:
 407               	.LM69:
 408 0204 81B5      		in r24,65-32
 409               	.LVL7:
 410 0206 8064      		ori r24,lo8(64)
 411 0208 81BD      		out 65-32,r24
GAS LISTING /var/folders/m6/h69rbtm16qg9rvj4_lszybhm0000gn/T//ccjkuZLT.s 			page 8


 412               	.LM70:
 413 020a 85B7      		in r24,85-32
 414 020c 877E      		andi r24,lo8(-25)
 415 020e 85BF      		out 85-32,r24
 416               	.LM71:
 417 0210 85B7      		in r24,85-32
 418 0212 8062      		ori r24,lo8(32)
 419 0214 85BF      		out 85-32,r24
 420               	/* #APP */
 421               	 ;  249 "firefly.c" 1
 422 0216 8895      		sleep
 423               		
 424               	 ;  0 "" 2
 425               	/* #NOAPP */
 426 0218 85B7      		in r24,85-32
 427 021a 8F7D      		andi r24,lo8(-33)
 428 021c 85BF      		out 85-32,r24
 429               	.LVL8:
 430               	.L30:
 431               	.LM72:
 432 021e 8E99      		sbic 49-32,6
 433 0220 00C0      		rjmp .L31
 434               	.LM73:
 435 0222 2E5F      		subi r18,lo8(-(2))
 436 0224 3F4F      		sbci r19,hi8(-(2))
 437               	.L29:
 438 0226 2617      		cp r18,r22
 439 0228 3707      		cpc r19,r23
 440 022a 00F0      		brlo .L32
 441 022c 1196      		adiw r26,1
 442               	.LM74:
 443 022e F0E0      		ldi r31,hi8(ch1pins.1520+3)
 444 0230 A030      		cpi r26,lo8(ch1pins.1520+3)
 445 0232 BF07      		cpc r27,r31
 446 0234 01F4      		brne .L33
 447 0236 2196      		adiw r28,1
 448               	.LM75:
 449 0238 80E0      		ldi r24,hi8(masterpins.1519+2)
 450 023a C030      		cpi r28,lo8(masterpins.1519+2)
 451 023c D807      		cpc r29,r24
 452               	.LVL9:
 453 023e 01F4      		brne .L34
 454 0240 692E      		mov r6,r25
 455               	.LM76:
 456               	/* #APP */
 457               	 ;  255 "firefly.c" 1
 458 0242 F894      		cli
 459               	 ;  0 "" 2
 460               	.LM77:
 461               	/* #NOAPP */
 462 0244 81E0      		ldi r24,lo8(1)
 463 0246 8093 0000 		sts ch1restcount,r24
 464               	.LM78:
 465               	/* #APP */
 466               	 ;  257 "firefly.c" 1
 467 024a 7894      		sei
 468               	 ;  0 "" 2
GAS LISTING /var/folders/m6/h69rbtm16qg9rvj4_lszybhm0000gn/T//ccjkuZLT.s 			page 9


 469               	/* #NOAPP */
 470 024c 00C0      		rjmp .L35
 471               	.L36:
 472               	.LM79:
 473 024e 81B5      		in r24,65-32
 474 0250 8064      		ori r24,lo8(64)
 475 0252 81BD      		out 65-32,r24
 476               	.LM80:
 477 0254 85B7      		in r24,85-32
 478 0256 877E      		andi r24,lo8(-25)
 479 0258 85BF      		out 85-32,r24
 480               	.LM81:
 481 025a 85B7      		in r24,85-32
 482 025c 8062      		ori r24,lo8(32)
 483 025e 85BF      		out 85-32,r24
 484               	/* #APP */
 485               	 ;  262 "firefly.c" 1
 486 0260 8895      		sleep
 487               		
 488               	 ;  0 "" 2
 489               	/* #NOAPP */
 490 0262 85B7      		in r24,85-32
 491 0264 8F7D      		andi r24,lo8(-33)
 492 0266 85BF      		out 85-32,r24
 493               	.L35:
 494               	.LM82:
 495 0268 8899      		sbic 49-32,0
 496 026a 00C0      		rjmp .L36
 497               	/* epilogue start */
 498               	.LM83:
 499 026c DF91      		pop r29
 500 026e CF91      		pop r28
 501 0270 1F91      		pop r17
 502 0272 0F91      		pop r16
 503 0274 0895      		ret
 504               	.LFE5:
 506               	.global	randbits
 508               	randbits:
 509               	.LFB10:
 510               	.LM84:
 511               	.LVL10:
 512               	/* prologue: function */
 513               	/* frame size = 0 */
 514 0276 E82F      		mov r30,r24
 515               	.LM85:
 516 0278 8091 0000 		lds r24,lfsr.1631
 517 027c 9091 0000 		lds r25,(lfsr.1631)+1
 518               	.LVL11:
 519 0280 0097      		sbiw r24,0
 520 0282 01F4      		brne .L41
 521               	.LM86:
 522 0284 9DEC      		ldi r25,lo8(-51)
 523 0286 82E3      		ldi r24,lo8(50)
 524               	.L46:
 525 0288 98BB      		out 56-32,r25
 526 028a 88BB      		out 56-32,r24
 527 028c 00C0      		rjmp .L46
GAS LISTING /var/folders/m6/h69rbtm16qg9rvj4_lszybhm0000gn/T//ccjkuZLT.s 			page 10


 528               	.L41:
 529 028e 9C01      		movw r18,r24
 530 0290 220F      		lsl r18
 531 0292 331F      		rol r19
 532               	.LM87:
 533 0294 97FF      		sbrs r25,7
 534 0296 00C0      		rjmp .L47
 535               	.L43:
 536               	.LM88:
 537 0298 87E8      		ldi r24,lo8(7559)
 538 029a 9DE1      		ldi r25,hi8(7559)
 539 029c 2827      		eor r18,r24
 540 029e 3927      		eor r19,r25
 541               	.L47:
 542 02a0 3093 0000 		sts (lfsr.1631)+1,r19
 543 02a4 2093 0000 		sts lfsr.1631,r18
 544               	.LBB18:
 545               	.LM89:
 546 02a8 F0E0      		ldi r31,lo8(0)
 547               	.LVL12:
 548 02aa E050      		subi r30,lo8(-(bitmasks))
 549 02ac F040      		sbci r31,hi8(-(bitmasks))
 550               	.LVL13:
 551               	/* #APP */
 552               	 ;  351 "firefly.c" 1
 553 02ae E491      		lpm r30, Z
 554               		
 555               	 ;  0 "" 2
 556               	.LVL14:
 557               	/* #NOAPP */
 558 02b0 8091 0000 		lds r24,lfsr.1631
 559               	.LBE18:
 560               	.LM90:
 561 02b4 8E23      		and r24,r30
 562               	/* epilogue start */
 563 02b6 0895      		ret
 564               	.LFE10:
 566               	.global	pickmaster
 568               	pickmaster:
 569               	.LFB9:
 570               	.LM91:
 571               	/* prologue: function */
 572               	/* frame size = 0 */
 573               	.LM92:
 574 02b8 83E0      		ldi r24,lo8(3)
 575 02ba 00D0      		rcall randbits
 576 02bc 9091 0000 		lds r25,ticker.1618
 577 02c0 8823      		tst r24
 578 02c2 01F4      		brne .L49
 579               	.LM93:
 580 02c4 90FF      		sbrs r25,0
 581 02c6 00C0      		rjmp .L51
 582 02c8 00C0      		rjmp .L50
 583               	.L49:
 584               	.LM94:
 585 02ca 892F      		mov r24,r25
 586 02cc 8F5F      		subi r24,lo8(-(1))
GAS LISTING /var/folders/m6/h69rbtm16qg9rvj4_lszybhm0000gn/T//ccjkuZLT.s 			page 11


 587 02ce 8093 0000 		sts ticker.1618,r24
 588 02d2 80FD      		sbrc r24,0
 589 02d4 00C0      		rjmp .L50
 590               	.L51:
 591 02d6 82E0      		ldi r24,lo8(2)
 592 02d8 0895      		ret
 593               	.L50:
 594 02da 80E1      		ldi r24,lo8(16)
 595               	.LM95:
 596 02dc 0895      		ret
 597               	.LFE9:
 599               	.global	pickapin
 601               	pickapin:
 602               	.LFB8:
 603               	.LM96:
 604               	.LVL15:
 605 02de 1F93      		push r17
 606               	/* prologue: function */
 607               	/* frame size = 0 */
 608 02e0 182F      		mov r17,r24
 609               	.LM97:
 610 02e2 88E0      		ldi r24,lo8(8)
 611               	.LVL16:
 612 02e4 00D0      		rcall randbits
 613               	.LM98:
 614 02e6 90E0      		ldi r25,lo8(0)
 615               	.LM99:
 616 02e8 9C01      		movw r18,r24
 617 02ea 220F      		lsl r18
 618 02ec 331F      		rol r19
 619 02ee 280F      		add r18,r24
 620 02f0 391F      		adc r19,r25
 621 02f2 3130      		cpi r19,lo8(1)
 622 02f4 01F0      		breq .L57
 623 02f6 3130      		cpi r19,lo8(1)
 624 02f8 00F0      		brlo .L56
 625 02fa 3230      		cpi r19,lo8(2)
 626 02fc 01F4      		brne .L55
 627 02fe 00C0      		rjmp .L63
 628               	.L56:
 629               	.LM100:
 630 0300 1830      		cpi r17,lo8(8)
 631 0302 01F4      		brne .L55
 632 0304 00C0      		rjmp .L59
 633               	.L57:
 634               	.LM101:
 635 0306 1430      		cpi r17,lo8(4)
 636 0308 01F4      		brne .L59
 637 030a 00C0      		rjmp .L60
 638               	.L63:
 639               	.LM102:
 640 030c 1130      		cpi r17,lo8(1)
 641 030e 01F4      		brne .L60
 642               	.L55:
 643 0310 88E0      		ldi r24,lo8(8)
 644               	.LVL17:
 645 0312 00C0      		rjmp .L61
GAS LISTING /var/folders/m6/h69rbtm16qg9rvj4_lszybhm0000gn/T//ccjkuZLT.s 			page 12


 646               	.LVL18:
 647               	.L59:
 648 0314 84E0      		ldi r24,lo8(4)
 649               	.LVL19:
 650 0316 00C0      		rjmp .L61
 651               	.LVL20:
 652               	.L60:
 653 0318 81E0      		ldi r24,lo8(1)
 654               	.LVL21:
 655               	.L61:
 656               	.LVL22:
 657               	/* epilogue start */
 658               	.LM103:
 659 031a 1F91      		pop r17
 660               	.LVL23:
 661 031c 0895      		ret
 662               	.LFE8:
 664               	.global	randscaleval
 666               	randscaleval:
 667               	.LFB7:
 668               	.LM104:
 669 031e EF92      		push r14
 670 0320 FF92      		push r15
 671 0322 0F93      		push r16
 672 0324 1F93      		push r17
 673               	/* prologue: function */
 674               	/* frame size = 0 */
 675               	.LM105:
 676 0326 86E0      		ldi r24,lo8(6)
 677 0328 00D0      		rcall randbits
 678 032a 182F      		mov r17,r24
 679 032c 85E0      		ldi r24,lo8(5)
 680 032e 00D0      		rcall randbits
 681 0330 E82E      		mov r14,r24
 682 0332 84E0      		ldi r24,lo8(4)
 683 0334 00D0      		rcall randbits
 684 0336 F82E      		mov r15,r24
 685 0338 83E0      		ldi r24,lo8(3)
 686 033a 00D0      		rcall randbits
 687 033c 082F      		mov r16,r24
 688 033e 82E0      		ldi r24,lo8(2)
 689 0340 00D0      		rcall randbits
 690 0342 1E0D      		add r17,r14
 691 0344 165C      		subi r17,lo8(-(58))
 692 0346 1F0D      		add r17,r15
 693 0348 100F      		add r17,r16
 694               	.LM106:
 695 034a 810F      		add r24,r17
 696               	/* epilogue start */
 697 034c 1F91      		pop r17
 698 034e 0F91      		pop r16
 699 0350 FF90      		pop r15
 700 0352 EF90      		pop r14
 701 0354 0895      		ret
 702               	.LFE7:
 704               	.global	randwaitval
 706               	randwaitval:
GAS LISTING /var/folders/m6/h69rbtm16qg9rvj4_lszybhm0000gn/T//ccjkuZLT.s 			page 13


 707               	.LFB6:
 708               	.LM107:
 709 0356 CF92      		push r12
 710 0358 DF92      		push r13
 711 035a EF92      		push r14
 712 035c FF92      		push r15
 713 035e 0F93      		push r16
 714 0360 1F93      		push r17
 715               	/* prologue: function */
 716               	/* frame size = 0 */
 717               	.LM108:
 718 0362 C090 0000 		lds r12,mood
 719 0366 84E0      		ldi r24,lo8(4)
 720 0368 00D0      		rcall randbits
 721 036a 182F      		mov r17,r24
 722 036c 84E0      		ldi r24,lo8(4)
 723 036e 00D0      		rcall randbits
 724 0370 D82E      		mov r13,r24
 725 0372 83E0      		ldi r24,lo8(3)
 726 0374 00D0      		rcall randbits
 727 0376 E82E      		mov r14,r24
 728 0378 82E0      		ldi r24,lo8(2)
 729 037a 00D0      		rcall randbits
 730 037c F82E      		mov r15,r24
 731 037e 82E0      		ldi r24,lo8(2)
 732 0380 00D0      		rcall randbits
 733 0382 082F      		mov r16,r24
 734 0384 83E0      		ldi r24,lo8(3)
 735 0386 00D0      		rcall randbits
 736 0388 1D0D      		add r17,r13
 737 038a 1C0D      		add r17,r12
 738 038c 1E0D      		add r17,r14
 739 038e 1F0D      		add r17,r15
 740 0390 100F      		add r17,r16
 741               	.LM109:
 742 0392 181B      		sub r17,r24
 743 0394 812F      		mov r24,r17
 744               	/* epilogue start */
 745 0396 1F91      		pop r17
 746 0398 0F91      		pop r16
 747 039a FF90      		pop r15
 748 039c EF90      		pop r14
 749 039e DF90      		pop r13
 750 03a0 CF90      		pop r12
 751 03a2 0895      		ret
 752               	.LFE6:
 754               	.global	pickasong
 756               	pickasong:
 757               	.LFB11:
 758               	.LM110:
 759               	/* prologue: function */
 760               	/* frame size = 0 */
 761               	.LM111:
 762 03a4 88E0      		ldi r24,lo8(8)
 763 03a6 00D0      		rcall randbits
 764 03a8 E82F      		mov r30,r24
 765 03aa F0E0      		ldi r31,lo8(0)
GAS LISTING /var/folders/m6/h69rbtm16qg9rvj4_lszybhm0000gn/T//ccjkuZLT.s 			page 14


 766 03ac 74E0      		ldi r23,4
 767 03ae F695      	1:	lsr r31
 768 03b0 E795      		ror r30
 769 03b2 7A95      		dec r23
 770 03b4 01F4      		brne 1b
 771 03b6 EE0F      		lsl r30
 772 03b8 FF1F      		rol r31
 773 03ba E050      		subi r30,lo8(-(songs))
 774 03bc F040      		sbci r31,hi8(-(songs))
 775               	.LM112:
 776 03be 8081      		ld r24,Z
 777 03c0 9181      		ldd r25,Z+1
 778               	/* epilogue start */
 779 03c2 0895      		ret
 780               	.LFE11:
 782               	.global	lighted_fireflies
 784               	lighted_fireflies:
 785               	.LFB15:
 786               	.LM113:
 787 03c4 EF92      		push r14
 788 03c6 FF92      		push r15
 789 03c8 0F93      		push r16
 790 03ca 1F93      		push r17
 791 03cc CF93      		push r28
 792 03ce DF93      		push r29
 793               	/* prologue: function */
 794               	/* frame size = 0 */
 795               	.LM114:
 796 03d0 1091 0000 		lds r17,temp.1721
 797 03d4 C091 0000 		lds r28,ch1noteptr.1719
 798 03d8 D091 0000 		lds r29,(ch1noteptr.1719)+1
 799               	.LM115:
 800 03dc E8E5      		ldi r30,lo8(600)
 801 03de EE2E      		mov r14,r30
 802 03e0 E2E0      		ldi r30,hi8(600)
 803 03e2 FE2E      		mov r15,r30
 804 03e4 00C0      		rjmp .L85
 805               	.LVL24:
 806               	.L83:
 807               	.LM116:
 808 03e6 8899      		sbic 49-32,0
 809 03e8 00C0      		rjmp .L72
 810 03ea 8A9B      		sbis 49-32,2
 811 03ec 00C0      		rjmp .L73
 812               	.L72:
 813               	.LM117:
 814 03ee 889B      		sbis 49-32,0
 815 03f0 00C0      		rjmp .L74
 816 03f2 8E99      		sbic 49-32,6
 817 03f4 00C0      		rjmp .L74
 818               	.LM118:
 819 03f6 E091 0000 		lds r30,ch1song.1717
 820 03fa F091 0000 		lds r31,(ch1song.1717)+1
 821               	.LVL25:
 822 03fe 8081      		ld r24,Z
 823 0400 9181      		ldd r25,Z+1
 824 0402 C817      		cp r28,r24
GAS LISTING /var/folders/m6/h69rbtm16qg9rvj4_lszybhm0000gn/T//ccjkuZLT.s 			page 15


 825 0404 D907      		cpc r29,r25
 826 0406 01F0      		breq .L74
 827               	.LBB19:
 828               	.LM119:
 829 0408 0280      		ldd __tmp_reg__,Z+2
 830 040a F381      		ldd r31,Z+3
 831 040c E02D      		mov r30,__tmp_reg__
 832 040e EC0F      		add r30,r28
 833 0410 FD1F      		adc r31,r29
 834 0412 2196      		adiw r28,1
 835               	/* #APP */
 836               	 ;  472 "firefly.c" 1
 837 0414 E491      		lpm r30, Z
 838               		
 839               	 ;  0 "" 2
 840               	.LVL26:
 841               	/* #NOAPP */
 842               	.LBE19:
 843               	.LM120:
 844 0416 6091 0000 		lds r22,ch1scale
 845 041a 8E2F      		mov r24,r30
 846 041c 90E0      		ldi r25,lo8(0)
 847 041e 70E0      		ldi r23,lo8(0)
 848 0420 00D0      		rcall __mulhi3
 849 0422 192F      		mov r17,r25
 850               	.LM121:
 851               	/* #APP */
 852               	 ;  475 "firefly.c" 1
 853 0424 F894      		cli
 854               	 ;  0 "" 2
 855               	.LM122:
 856               	/* #NOAPP */
 857 0426 9093 0000 		sts ch1nextnote,r25
 858               	.LM123:
 859 042a 8E9A      		sbi 49-32,6
 860               	.LM124:
 861               	/* #APP */
 862               	 ;  478 "firefly.c" 1
 863 042c 7894      		sei
 864               	 ;  0 "" 2
 865               	/* #NOAPP */
 866 042e 00C0      		rjmp .L85
 867               	.LVL27:
 868               	.L74:
 869               	.LM125:
 870 0430 8A9B      		sbis 49-32,2
 871 0432 00C0      		rjmp .L75
 872 0434 8F99      		sbic 49-32,7
 873 0436 00C0      		rjmp .L75
 874               	.LM126:
 875 0438 2091 0000 		lds r18,ch2noteptr.1720
 876 043c 3091 0000 		lds r19,(ch2noteptr.1720)+1
 877 0440 E091 0000 		lds r30,ch2song.1718
 878 0444 F091 0000 		lds r31,(ch2song.1718)+1
 879               	.LVL28:
 880 0448 8081      		ld r24,Z
 881 044a 9181      		ldd r25,Z+1
GAS LISTING /var/folders/m6/h69rbtm16qg9rvj4_lszybhm0000gn/T//ccjkuZLT.s 			page 16


 882 044c 2817      		cp r18,r24
 883 044e 3907      		cpc r19,r25
 884 0450 01F0      		breq .L75
 885               	.LBB20:
 886               	.LM127:
 887 0452 0280      		ldd __tmp_reg__,Z+2
 888 0454 F381      		ldd r31,Z+3
 889 0456 E02D      		mov r30,__tmp_reg__
 890 0458 E20F      		add r30,r18
 891 045a F31F      		adc r31,r19
 892 045c 2F5F      		subi r18,lo8(-(1))
 893 045e 3F4F      		sbci r19,hi8(-(1))
 894 0460 3093 0000 		sts (ch2noteptr.1720)+1,r19
 895 0464 2093 0000 		sts ch2noteptr.1720,r18
 896               	/* #APP */
 897               	 ;  486 "firefly.c" 1
 898 0468 E491      		lpm r30, Z
 899               		
 900               	 ;  0 "" 2
 901               	.LVL29:
 902               	/* #NOAPP */
 903               	.LBE20:
 904               	.LM128:
 905 046a 6091 0000 		lds r22,ch2scale
 906 046e 8E2F      		mov r24,r30
 907 0470 90E0      		ldi r25,lo8(0)
 908 0472 70E0      		ldi r23,lo8(0)
 909 0474 00D0      		rcall __mulhi3
 910 0476 192F      		mov r17,r25
 911               	.LM129:
 912               	/* #APP */
 913               	 ;  489 "firefly.c" 1
 914 0478 F894      		cli
 915               	 ;  0 "" 2
 916               	.LM130:
 917               	/* #NOAPP */
 918 047a 9093 0000 		sts ch2nextnote,r25
 919               	.LM131:
 920 047e 8F9A      		sbi 49-32,7
 921               	.LM132:
 922               	/* #APP */
 923               	 ;  492 "firefly.c" 1
 924 0480 7894      		sei
 925               	 ;  0 "" 2
 926               	/* #NOAPP */
 927 0482 00C0      		rjmp .L85
 928               	.LVL30:
 929               	.L75:
 930               	.LM133:
 931 0484 889B      		sbis 49-32,0
 932 0486 00C0      		rjmp .L76
 933 0488 8091 0000 		lds r24,ch1restcount
 934 048c 8823      		tst r24
 935 048e 01F4      		brne .L76
 936               	.LM134:
 937 0490 00D0      		rcall randwaitval
 938               	.LVL31:
GAS LISTING /var/folders/m6/h69rbtm16qg9rvj4_lszybhm0000gn/T//ccjkuZLT.s 			page 17


 939 0492 182F      		mov r17,r24
 940               	.LM135:
 941               	/* #APP */
 942               	 ;  503 "firefly.c" 1
 943 0494 F894      		cli
 944               	 ;  0 "" 2
 945               	.LM136:
 946               	/* #NOAPP */
 947 0496 8093 0000 		sts ch1restcount,r24
 948               	.LM137:
 949               	/* #APP */
 950               	 ;  505 "firefly.c" 1
 951 049a 7894      		sei
 952               	 ;  0 "" 2
 953               	/* #NOAPP */
 954 049c 00C0      		rjmp .L85
 955               	.LVL32:
 956               	.L76:
 957               	.LM138:
 958 049e 8A9B      		sbis 49-32,2
 959 04a0 00C0      		rjmp .L73
 960 04a2 8091 0000 		lds r24,ch2restcount
 961 04a6 8823      		tst r24
 962 04a8 01F4      		brne .L73
 963               	.LM139:
 964 04aa 00D0      		rcall randwaitval
 965               	.LVL33:
 966 04ac 182F      		mov r17,r24
 967               	.LM140:
 968               	/* #APP */
 969               	 ;  511 "firefly.c" 1
 970 04ae F894      		cli
 971               	 ;  0 "" 2
 972               	.LM141:
 973               	/* #NOAPP */
 974 04b0 8093 0000 		sts ch2restcount,r24
 975               	.LM142:
 976               	/* #APP */
 977               	 ;  513 "firefly.c" 1
 978 04b4 7894      		sei
 979               	 ;  0 "" 2
 980               	/* #NOAPP */
 981 04b6 00C0      		rjmp .L85
 982               	.LVL34:
 983               	.L73:
 984               	.LM143:
 985 04b8 8899      		sbic 49-32,0
 986 04ba 00C0      		rjmp .L77
 987 04bc 8999      		sbic 49-32,1
 988 04be 00C0      		rjmp .L77
 989 04c0 8E99      		sbic 49-32,6
 990 04c2 00C0      		rjmp .L77
 991               	.LM144:
 992 04c4 00D0      		rcall pickasong
 993               	.LVL35:
 994 04c6 9093 0000 		sts (ch1song.1717)+1,r25
 995 04ca 8093 0000 		sts ch1song.1717,r24
GAS LISTING /var/folders/m6/h69rbtm16qg9rvj4_lszybhm0000gn/T//ccjkuZLT.s 			page 18


 996               	.LM145:
 997 04ce 872D      		mov r24,r7
 998 04d0 00D0      		rcall pickapin
 999 04d2 682E      		mov r6,r24
 1000               	.LM146:
 1001 04d4 00D0      		rcall randscaleval
 1002 04d6 8093 0000 		sts ch1scale,r24
 1003               	.LBB21:
 1004               	.LM147:
 1005 04da E091 0000 		lds r30,ch1song.1717
 1006 04de F091 0000 		lds r31,(ch1song.1717)+1
 1007 04e2 0280      		ldd __tmp_reg__,Z+2
 1008 04e4 F381      		ldd r31,Z+3
 1009 04e6 E02D      		mov r30,__tmp_reg__
 1010               	/* #APP */
 1011               	 ;  530 "firefly.c" 1
 1012 04e8 E491      		lpm r30, Z
 1013               		
 1014               	 ;  0 "" 2
 1015               	.LVL36:
 1016               	/* #NOAPP */
 1017               	.LBE21:
 1018               	.LM148:
 1019 04ea 6091 0000 		lds r22,ch1scale
 1020 04ee 8E2F      		mov r24,r30
 1021 04f0 90E0      		ldi r25,lo8(0)
 1022 04f2 70E0      		ldi r23,lo8(0)
 1023 04f4 00D0      		rcall __mulhi3
 1024 04f6 192F      		mov r17,r25
 1025 04f8 092F      		mov r16,r25
 1026               	.LM149:
 1027 04fa 8B9B      		sbis 49-32,3
 1028 04fc 00C0      		rjmp .L78
 1029               	.LM150:
 1030 04fe 00D0      		rcall pickmaster
 1031               	.LVL37:
 1032 0500 8093 0000 		sts masterpinmask,r24
 1033               	.LVL38:
 1034               	.L78:
 1035               	.LM151:
 1036               	/* #APP */
 1037               	 ;  538 "firefly.c" 1
 1038 0504 F894      		cli
 1039               	 ;  0 "" 2
 1040               	.LM152:
 1041               	/* #NOAPP */
 1042 0506 0093 0000 		sts ch1nextnote,r16
 1043               	.LM153:
 1044 050a 8E9A      		sbi 49-32,6
 1045               	.LM154:
 1046               	/* #APP */
 1047               	 ;  541 "firefly.c" 1
 1048 050c 7894      		sei
 1049               	 ;  0 "" 2
 1050               	/* #NOAPP */
 1051 050e C1E0      		ldi r28,lo8(1)
 1052 0510 D0E0      		ldi r29,hi8(1)
GAS LISTING /var/folders/m6/h69rbtm16qg9rvj4_lszybhm0000gn/T//ccjkuZLT.s 			page 19


 1053 0512 00C0      		rjmp .L85
 1054               	.LVL39:
 1055               	.L77:
 1056               	.LM155:
 1057 0514 8A99      		sbic 49-32,2
 1058 0516 00C0      		rjmp .L79
 1059 0518 8B99      		sbic 49-32,3
 1060 051a 00C0      		rjmp .L79
 1061 051c 8F99      		sbic 49-32,7
 1062 051e 00C0      		rjmp .L79
 1063               	.LM156:
 1064 0520 00D0      		rcall pickasong
 1065               	.LVL40:
 1066 0522 9093 0000 		sts (ch2song.1718)+1,r25
 1067 0526 8093 0000 		sts ch2song.1718,r24
 1068               	.LM157:
 1069 052a 1092 0000 		sts (ch2noteptr.1720)+1,__zero_reg__
 1070 052e 1092 0000 		sts ch2noteptr.1720,__zero_reg__
 1071               	.LM158:
 1072 0532 862D      		mov r24,r6
 1073 0534 00D0      		rcall pickapin
 1074 0536 782E      		mov r7,r24
 1075               	.LM159:
 1076 0538 00D0      		rcall randscaleval
 1077 053a 8093 0000 		sts ch2scale,r24
 1078               	.LBB22:
 1079               	.LM160:
 1080 053e 8091 0000 		lds r24,ch2noteptr.1720
 1081 0542 9091 0000 		lds r25,(ch2noteptr.1720)+1
 1082 0546 E091 0000 		lds r30,ch2song.1718
 1083 054a F091 0000 		lds r31,(ch2song.1718)+1
 1084 054e 0280      		ldd __tmp_reg__,Z+2
 1085 0550 F381      		ldd r31,Z+3
 1086 0552 E02D      		mov r30,__tmp_reg__
 1087 0554 E80F      		add r30,r24
 1088 0556 F91F      		adc r31,r25
 1089 0558 0196      		adiw r24,1
 1090 055a 9093 0000 		sts (ch2noteptr.1720)+1,r25
 1091 055e 8093 0000 		sts ch2noteptr.1720,r24
 1092               	/* #APP */
 1093               	 ;  556 "firefly.c" 1
 1094 0562 E491      		lpm r30, Z
 1095               		
 1096               	 ;  0 "" 2
 1097               	.LVL41:
 1098               	/* #NOAPP */
 1099               	.LBE22:
 1100               	.LM161:
 1101 0564 6091 0000 		lds r22,ch2scale
 1102 0568 8E2F      		mov r24,r30
 1103 056a 90E0      		ldi r25,lo8(0)
 1104 056c 70E0      		ldi r23,lo8(0)
 1105 056e 00D0      		rcall __mulhi3
 1106 0570 192F      		mov r17,r25
 1107 0572 092F      		mov r16,r25
 1108               	.LM162:
 1109 0574 899B      		sbis 49-32,1
GAS LISTING /var/folders/m6/h69rbtm16qg9rvj4_lszybhm0000gn/T//ccjkuZLT.s 			page 20


 1110 0576 00C0      		rjmp .L80
 1111               	.LM163:
 1112 0578 00D0      		rcall pickmaster
 1113               	.LVL42:
 1114 057a 8093 0000 		sts masterpinmask,r24
 1115               	.LVL43:
 1116               	.L80:
 1117               	.LM164:
 1118               	/* #APP */
 1119               	 ;  564 "firefly.c" 1
 1120 057e F894      		cli
 1121               	 ;  0 "" 2
 1122               	.LM165:
 1123               	/* #NOAPP */
 1124 0580 0093 0000 		sts ch2nextnote,r16
 1125               	.LM166:
 1126 0584 8F9A      		sbi 49-32,7
 1127               	.LM167:
 1128               	/* #APP */
 1129               	 ;  567 "firefly.c" 1
 1130 0586 7894      		sei
 1131               	 ;  0 "" 2
 1132               	/* #NOAPP */
 1133 0588 00C0      		rjmp .L85
 1134               	.LVL44:
 1135               	.L79:
 1136               	.LM168:
 1137 058a 8C9B      		sbis 49-32,4
 1138 058c 00C0      		rjmp .L81
 1139               	.LM169:
 1140 058e 85E0      		ldi r24,lo8(5)
 1141 0590 00D0      		rcall randbits
 1142               	.LVL45:
 1143 0592 885F      		subi r24,lo8(-(8))
 1144 0594 8093 0000 		sts mood,r24
 1145               	.LM170:
 1146 0598 F092 0000 		sts (mood_count)+1,r15
 1147 059c E092 0000 		sts mood_count,r14
 1148               	.LM171:
 1149 05a0 8C98      		cbi 49-32,4
 1150 05a2 00C0      		rjmp .L85
 1151               	.LVL46:
 1152               	.L81:
 1153               	.LM172:
 1154 05a4 81B5      		in r24,65-32
 1155 05a6 8064      		ori r24,lo8(64)
 1156 05a8 81BD      		out 65-32,r24
 1157               	.LM173:
 1158 05aa 899B      		sbis 49-32,1
 1159 05ac 00C0      		rjmp .L82
 1160 05ae 8B9B      		sbis 49-32,3
 1161 05b0 00C0      		rjmp .L82
 1162               	.LM174:
 1163 05b2 85B7      		in r24,85-32
 1164 05b4 877E      		andi r24,lo8(-25)
 1165 05b6 8061      		ori r24,lo8(16)
 1166 05b8 85BF      		out 85-32,r24
GAS LISTING /var/folders/m6/h69rbtm16qg9rvj4_lszybhm0000gn/T//ccjkuZLT.s 			page 21


 1167               	.LM175:
 1168 05ba 85B7      		in r24,85-32
 1169 05bc 8062      		ori r24,lo8(32)
 1170 05be 85BF      		out 85-32,r24
 1171               	/* #APP */
 1172               	 ;  591 "firefly.c" 1
 1173 05c0 8895      		sleep
 1174               		
 1175               	 ;  0 "" 2
 1176               	/* #NOAPP */
 1177 05c2 00C0      		rjmp .L86
 1178               	.L82:
 1179               	.LM176:
 1180 05c4 85B7      		in r24,85-32
 1181 05c6 877E      		andi r24,lo8(-25)
 1182 05c8 85BF      		out 85-32,r24
 1183               	.LM177:
 1184 05ca 85B7      		in r24,85-32
 1185 05cc 8062      		ori r24,lo8(32)
 1186 05ce 85BF      		out 85-32,r24
 1187               	/* #APP */
 1188               	 ;  595 "firefly.c" 1
 1189 05d0 8895      		sleep
 1190               		
 1191               	 ;  0 "" 2
 1192               	/* #NOAPP */
 1193               	.L86:
 1194 05d2 85B7      		in r24,85-32
 1195 05d4 8F7D      		andi r24,lo8(-33)
 1196 05d6 85BF      		out 85-32,r24
 1197               	.L85:
 1198               	.LM178:
 1199 05d8 8091 0000 		lds r24,is_dark
 1200 05dc 8823      		tst r24
 1201 05de 01F0      		breq .+2
 1202 05e0 00C0      		rjmp .L83
 1203 05e2 1093 0000 		sts temp.1721,r17
 1204 05e6 D093 0000 		sts (ch1noteptr.1719)+1,r29
 1205 05ea C093 0000 		sts ch1noteptr.1719,r28
 1206               	/* epilogue start */
 1207               	.LM179:
 1208 05ee DF91      		pop r29
 1209 05f0 CF91      		pop r28
 1210 05f2 1F91      		pop r17
 1211 05f4 0F91      		pop r16
 1212 05f6 FF90      		pop r15
 1213 05f8 EF90      		pop r14
 1214 05fa 0895      		ret
 1215               	.LFE15:
 1217               	.global	main
 1219               	main:
 1220               	.LFB16:
 1221               	.LM180:
 1222 05fc 0F93      		push r16
 1223 05fe 1F93      		push r17
 1224               	/* prologue: function */
 1225               	/* frame size = 0 */
GAS LISTING /var/folders/m6/h69rbtm16qg9rvj4_lszybhm0000gn/T//ccjkuZLT.s 			page 22


 1226               	.LBB23:
 1227               	.LBB24:
 1228               	.LM181:
 1229 0600 2DE0      		ldi r18,lo8(13)
 1230 0602 88E1      		ldi r24,lo8(24)
 1231 0604 90E0      		ldi r25,hi8(24)
 1232               	/* #APP */
 1233               	 ;  183 "firefly.c" 1
 1234 0606 0FB6      		in __tmp_reg__,__SREG__
 1235 0608 F894      		cli
 1236 060a A895      		wdr
 1237 060c 81BD      		out 33,r24
 1238 060e 0FBE      		out __SREG__,__tmp_reg__
 1239 0610 21BD      		out 33,r18
 1240               	 ;  0 "" 2
 1241               	.LM182:
 1242               	/* #NOAPP */
 1243 0612 81B5      		in r24,65-32
 1244 0614 8064      		ori r24,lo8(64)
 1245 0616 81BD      		out 65-32,r24
 1246               	.LM183:
 1247 0618 8FED      		ldi r24,lo8(-33)
 1248 061a 87BB      		out 55-32,r24
 1249               	.LM184:
 1250 061c 8DEC      		ldi r24,lo8(-51)
 1251 061e 88BB      		out 56-32,r24
 1252               	.LM185:
 1253 0620 80B5      		in r24,64-32
 1254 0622 8860      		ori r24,lo8(8)
 1255 0624 80BD      		out 64-32,r24
 1256               	.LM186:
 1257 0626 80B5      		in r24,64-32
 1258 0628 8260      		ori r24,lo8(2)
 1259 062a 80BD      		out 64-32,r24
 1260               	.LM187:
 1261 062c 80B5      		in r24,64-32
 1262 062e 8160      		ori r24,lo8(1)
 1263 0630 80BD      		out 64-32,r24
 1264               	.LM188:
 1265 0632 82E0      		ldi r24,lo8(2)
 1266 0634 8ABD      		out 74-32,r24
 1267               	.LM189:
 1268 0636 83BF      		out 83-32,r24
 1269               	.LM190:
 1270 0638 89E1      		ldi r24,lo8(25)
 1271 063a 89BD      		out 73-32,r24
 1272               	.LBB25:
 1273               	.LM191:
 1274 063c 82E0      		ldi r24,lo8(2)
 1275 063e 90E0      		ldi r25,hi8(2)
 1276 0640 20E8      		ldi r18,lo8(-128)
 1277               	/* #APP */
 1278               	 ;  212 "firefly.c" 1
 1279 0642 0FB6      		in __tmp_reg__,__SREG__
 1280 0644 F894      		cli
 1281 0646 26BD      		out 38, r18
 1282 0648 86BD      		out 38, r24
GAS LISTING /var/folders/m6/h69rbtm16qg9rvj4_lszybhm0000gn/T//ccjkuZLT.s 			page 23


 1283 064a 0FBE      		out __SREG__, __tmp_reg__
 1284               	 ;  0 "" 2
 1285               	/* #NOAPP */
 1286               	.LBE25:
 1287               	.LM192:
 1288 064c 80E1      		ldi r24,lo8(16)
 1289 064e 89BF      		out 89-32,r24
 1290               	.LM193:
 1291 0650 81B5      		in r24,65-32
 1292 0652 8064      		ori r24,lo8(64)
 1293 0654 81BD      		out 65-32,r24
 1294               	.LBE24:
 1295               	.LBE23:
 1296               	.LM194:
 1297 0656 8824      		clr r8
 1298 0658 7724      		clr r7
 1299 065a 6624      		clr r6
 1300 065c 5524      		clr r5
 1301 065e 4424      		clr r4
 1302 0660 3324      		clr r3
 1303 0662 2224      		clr r2
 1304               	.LM195:
 1305 0664 00D0      		rcall randwaitval
 1306 0666 8093 0000 		sts ch1restcount,r24
 1307               	.LM196:
 1308 066a 00D0      		rcall randwaitval
 1309 066c 8093 0000 		sts ch2restcount,r24
 1310               	.LM197:
 1311 0670 11BA      		out 49-32,__zero_reg__
 1312               	.LM198:
 1313 0672 1092 0000 		sts waiting_for_dark,__zero_reg__
 1314               	.LM199:
 1315 0676 81E0      		ldi r24,lo8(1)
 1316 0678 8093 0000 		sts is_dark,r24
 1317               	.LM200:
 1318 067c 8093 0000 		sts force_dark,r24
 1319               	.LM201:
 1320               	/* #APP */
 1321               	 ;  619 "firefly.c" 1
 1322 0680 7894      		sei
 1323               	 ;  0 "" 2
 1324               	.LM202:
 1325               	/* #NOAPP */
 1326 0682 00D0      		rcall showbootup
 1327               	.LM203:
 1328 0684 1092 0000 		sts force_dark,__zero_reg__
 1329               	.LBB26:
 1330               	.LBB27:
 1331               	.LM204:
 1332 0688 01E0      		ldi r16,lo8(1)
 1333               	.LM205:
 1334 068a 10E1      		ldi r17,lo8(16)
 1335               	.L90:
 1336               	.LM206:
 1337 068c 0093 0000 		sts waiting_for_dark,r16
 1338               	.LM207:
 1339 0690 19BE      		out 89-32,__zero_reg__
GAS LISTING /var/folders/m6/h69rbtm16qg9rvj4_lszybhm0000gn/T//ccjkuZLT.s 			page 24


 1340 0692 00C0      		rjmp .L88
 1341               	.L89:
 1342               	.LM208:
 1343 0694 81B5      		in r24,65-32
 1344 0696 8064      		ori r24,lo8(64)
 1345 0698 81BD      		out 65-32,r24
 1346               	.LM209:
 1347 069a 85B7      		in r24,85-32
 1348 069c 877E      		andi r24,lo8(-25)
 1349 069e 8061      		ori r24,lo8(16)
 1350 06a0 85BF      		out 85-32,r24
 1351               	.LM210:
 1352 06a2 85B7      		in r24,85-32
 1353 06a4 8062      		ori r24,lo8(32)
 1354 06a6 85BF      		out 85-32,r24
 1355               	/* #APP */
 1356               	 ;  430 "firefly.c" 1
 1357 06a8 8895      		sleep
 1358               		
 1359               	 ;  0 "" 2
 1360               	/* #NOAPP */
 1361 06aa 85B7      		in r24,85-32
 1362 06ac 8F7D      		andi r24,lo8(-33)
 1363 06ae 85BF      		out 85-32,r24
 1364               	.L88:
 1365               	.LM211:
 1366 06b0 8091 0000 		lds r24,is_dark
 1367 06b4 8823      		tst r24
 1368 06b6 01F0      		breq .L89
 1369               	.LM212:
 1370 06b8 19BF      		out 89-32,r17
 1371               	.LM213:
 1372 06ba 1092 0000 		sts waiting_for_dark,__zero_reg__
 1373               	.LBE27:
 1374               	.LBE26:
 1375               	.LM214:
 1376 06be 8824      		clr r8
 1377 06c0 7724      		clr r7
 1378 06c2 6624      		clr r6
 1379 06c4 5524      		clr r5
 1380 06c6 4424      		clr r4
 1381 06c8 3324      		clr r3
 1382 06ca 2224      		clr r2
 1383               	.LM215:
 1384 06cc 11BA      		out 49-32,__zero_reg__
 1385               	.LM216:
 1386 06ce 899A      		sbi 49-32,1
 1387               	.LM217:
 1388 06d0 8B9A      		sbi 49-32,3
 1389               	.LM218:
 1390 06d2 00D0      		rcall lighted_fireflies
 1391 06d4 00C0      		rjmp .L90
 1392               	.LFE16:
 1394               	.global	bootsongnotes
 1395               		.section	.progmem.data,"a",@progbits
 1398               	bootsongnotes:
 1399 0000 00        		.byte	0
GAS LISTING /var/folders/m6/h69rbtm16qg9rvj4_lszybhm0000gn/T//ccjkuZLT.s 			page 25


 1400 0001 04        		.byte	4
 1401 0002 09        		.byte	9
 1402 0003 10        		.byte	16
 1403 0004 18        		.byte	24
 1404 0005 21        		.byte	33
 1405 0006 29        		.byte	41
 1406 0007 2F        		.byte	47
 1407 0008 32        		.byte	50
 1408 0009 31        		.byte	49
 1409 000a 2C        		.byte	44
 1410 000b 23        		.byte	35
 1411 000c 1A        		.byte	26
 1412 000d 11        		.byte	17
 1413 000e 0A        		.byte	10
 1414 000f 05        		.byte	5
 1415 0010 01        		.byte	1
 1416 0011 00        		.byte	0
 1417 0012 00        		.byte	0
 1418               	.global	bootsong
 1419               		.data
 1422               	bootsong:
 1423 0000 1300      		.word	19
 1424 0002 0000      		.word	bootsongnotes
 1425               	.global	song2anotes
 1426               		.section	.progmem.data
 1429               	song2anotes:
 1430 0013 02        		.byte	2
 1431 0014 1D        		.byte	29
 1432 0015 51        		.byte	81
 1433 0016 7B        		.byte	123
 1434 0017 82        		.byte	-126
 1435 0018 68        		.byte	104
 1436 0019 3F        		.byte	63
 1437 001a 18        		.byte	24
 1438 001b 02        		.byte	2
 1439 001c 01        		.byte	1
 1440 001d 01        		.byte	1
 1441 001e 01        		.byte	1
 1442 001f 01        		.byte	1
 1443 0020 01        		.byte	1
 1444 0021 01        		.byte	1
 1445 0022 04        		.byte	4
 1446 0023 0F        		.byte	15
 1447 0024 1A        		.byte	26
 1448 0025 24        		.byte	36
 1449 0026 2E        		.byte	46
 1450 0027 37        		.byte	55
 1451 0028 42        		.byte	66
 1452 0029 4F        		.byte	79
 1453 002a 5B        		.byte	91
 1454 002b 66        		.byte	102
 1455 002c 6D        		.byte	109
 1456 002d 73        		.byte	115
 1457 002e 79        		.byte	121
 1458 002f 83        		.byte	-125
 1459 0030 8E        		.byte	-114
 1460 0031 98        		.byte	-104
GAS LISTING /var/folders/m6/h69rbtm16qg9rvj4_lszybhm0000gn/T//ccjkuZLT.s 			page 26


 1461 0032 9B        		.byte	-101
 1462 0033 97        		.byte	-105
 1463 0034 8D        		.byte	-115
 1464 0035 85        		.byte	-123
 1465 0036 83        		.byte	-125
 1466 0037 87        		.byte	-121
 1467 0038 90        		.byte	-112
 1468 0039 99        		.byte	-103
 1469 003a 9E        		.byte	-98
 1470 003b 9E        		.byte	-98
 1471 003c 9A        		.byte	-102
 1472 003d 97        		.byte	-105
 1473 003e 96        		.byte	-106
 1474 003f 95        		.byte	-107
 1475 0040 94        		.byte	-108
 1476 0041 90        		.byte	-112
 1477 0042 8B        		.byte	-117
 1478 0043 88        		.byte	-120
 1479 0044 8A        		.byte	-118
 1480 0045 91        		.byte	-111
 1481 0046 9B        		.byte	-101
 1482 0047 A1        		.byte	-95
 1483 0048 A0        		.byte	-96
 1484 0049 99        		.byte	-103
 1485 004a 90        		.byte	-112
 1486 004b 8A        		.byte	-118
 1487 004c 8B        		.byte	-117
 1488 004d 91        		.byte	-111
 1489 004e 98        		.byte	-104
 1490 004f 9C        		.byte	-100
 1491 0050 9A        		.byte	-102
 1492 0051 94        		.byte	-108
 1493 0052 8D        		.byte	-115
 1494 0053 8A        		.byte	-118
 1495 0054 8C        		.byte	-116
 1496 0055 91        		.byte	-111
 1497 0056 96        		.byte	-106
 1498 0057 99        		.byte	-103
 1499 0058 99        		.byte	-103
 1500 0059 98        		.byte	-104
 1501 005a 98        		.byte	-104
 1502 005b 9A        		.byte	-102
 1503 005c 9A        		.byte	-102
 1504 005d 96        		.byte	-106
 1505 005e 8E        		.byte	-114
 1506 005f 86        		.byte	-122
 1507 0060 81        		.byte	-127
 1508 0061 84        		.byte	-124
 1509 0062 8E        		.byte	-114
 1510 0063 9C        		.byte	-100
 1511 0064 A8        		.byte	-88
 1512 0065 AA        		.byte	-86
 1513 0066 A1        		.byte	-95
 1514 0067 92        		.byte	-110
 1515 0068 83        		.byte	-125
 1516 0069 79        		.byte	121
 1517 006a 75        		.byte	117
GAS LISTING /var/folders/m6/h69rbtm16qg9rvj4_lszybhm0000gn/T//ccjkuZLT.s 			page 27


 1518 006b 74        		.byte	116
 1519 006c 74        		.byte	116
 1520 006d 73        		.byte	115
 1521 006e 71        		.byte	113
 1522 006f 6E        		.byte	110
 1523 0070 6D        		.byte	109
 1524 0071 6A        		.byte	106
 1525 0072 65        		.byte	101
 1526 0073 5C        		.byte	92
 1527 0074 50        		.byte	80
 1528 0075 43        		.byte	67
 1529 0076 3A        		.byte	58
 1530 0077 34        		.byte	52
 1531 0078 31        		.byte	49
 1532 0079 2E        		.byte	46
 1533 007a 2B        		.byte	43
 1534 007b 27        		.byte	39
 1535 007c 21        		.byte	33
 1536 007d 1B        		.byte	27
 1537 007e 16        		.byte	22
 1538 007f 12        		.byte	18
 1539 0080 0E        		.byte	14
 1540 0081 0B        		.byte	11
 1541 0082 07        		.byte	7
 1542 0083 05        		.byte	5
 1543 0084 03        		.byte	3
 1544 0085 01        		.byte	1
 1545 0086 01        		.byte	1
 1546 0087 00        		.byte	0
 1547 0088 01        		.byte	1
 1548 0089 00        		.byte	0
 1549               	.global	song2a
 1550               		.data
 1553               	song2a:
 1554 0004 7700      		.word	119
 1555 0006 0000      		.word	song2anotes
 1556               	.global	song2bnotes
 1557               		.section	.progmem.data
 1560               	song2bnotes:
 1561 008a 01        		.byte	1
 1562 008b 1F        		.byte	31
 1563 008c 59        		.byte	89
 1564 008d 7E        		.byte	126
 1565 008e 77        		.byte	119
 1566 008f 55        		.byte	85
 1567 0090 2A        		.byte	42
 1568 0091 06        		.byte	6
 1569 0092 01        		.byte	1
 1570 0093 01        		.byte	1
 1571 0094 01        		.byte	1
 1572 0095 01        		.byte	1
 1573 0096 01        		.byte	1
 1574 0097 01        		.byte	1
 1575 0098 08        		.byte	8
 1576 0099 16        		.byte	22
 1577 009a 25        		.byte	37
 1578 009b 33        		.byte	51
GAS LISTING /var/folders/m6/h69rbtm16qg9rvj4_lszybhm0000gn/T//ccjkuZLT.s 			page 28


 1579 009c 40        		.byte	64
 1580 009d 48        		.byte	72
 1581 009e 50        		.byte	80
 1582 009f 5C        		.byte	92
 1583 00a0 6C        		.byte	108
 1584 00a1 7A        		.byte	122
 1585 00a2 7F        		.byte	127
 1586 00a3 7A        		.byte	122
 1587 00a4 75        		.byte	117
 1588 00a5 7C        		.byte	124
 1589 00a6 8F        		.byte	-113
 1590 00a7 A3        		.byte	-93
 1591 00a8 A7        		.byte	-89
 1592 00a9 9B        		.byte	-101
 1593 00aa 8B        		.byte	-117
 1594 00ab 87        		.byte	-121
 1595 00ac 8E        		.byte	-114
 1596 00ad 96        		.byte	-106
 1597 00ae 96        		.byte	-106
 1598 00af 8D        		.byte	-115
 1599 00b0 83        		.byte	-125
 1600 00b1 81        		.byte	-127
 1601 00b2 85        		.byte	-123
 1602 00b3 8B        		.byte	-117
 1603 00b4 8F        		.byte	-113
 1604 00b5 92        		.byte	-110
 1605 00b6 95        		.byte	-107
 1606 00b7 98        		.byte	-104
 1607 00b8 96        		.byte	-106
 1608 00b9 90        		.byte	-112
 1609 00ba 8A        		.byte	-118
 1610 00bb 8A        		.byte	-118
 1611 00bc 91        		.byte	-111
 1612 00bd 96        		.byte	-106
 1613 00be 93        		.byte	-109
 1614 00bf 89        		.byte	-119
 1615 00c0 84        		.byte	-124
 1616 00c1 89        		.byte	-119
 1617 00c2 99        		.byte	-103
 1618 00c3 A6        		.byte	-90
 1619 00c4 A7        		.byte	-89
 1620 00c5 9C        		.byte	-100
 1621 00c6 94        		.byte	-108
 1622 00c7 95        		.byte	-107
 1623 00c8 9C        		.byte	-100
 1624 00c9 A1        		.byte	-95
 1625 00ca 9C        		.byte	-100
 1626 00cb 93        		.byte	-109
 1627 00cc 8D        		.byte	-115
 1628 00cd 91        		.byte	-111
 1629 00ce 98        		.byte	-104
 1630 00cf 9D        		.byte	-99
 1631 00d0 9C        		.byte	-100
 1632 00d1 9A        		.byte	-102
 1633 00d2 9C        		.byte	-100
 1634 00d3 A1        		.byte	-95
 1635 00d4 A1        		.byte	-95
GAS LISTING /var/folders/m6/h69rbtm16qg9rvj4_lszybhm0000gn/T//ccjkuZLT.s 			page 29


 1636 00d5 98        		.byte	-104
 1637 00d6 8C        		.byte	-116
 1638 00d7 85        		.byte	-123
 1639 00d8 83        		.byte	-125
 1640 00d9 82        		.byte	-126
 1641 00da 7C        		.byte	124
 1642 00db 72        		.byte	114
 1643 00dc 69        		.byte	105
 1644 00dd 66        		.byte	102
 1645 00de 67        		.byte	103
 1646 00df 65        		.byte	101
 1647 00e0 5D        		.byte	93
 1648 00e1 52        		.byte	82
 1649 00e2 4A        		.byte	74
 1650 00e3 44        		.byte	68
 1651 00e4 3F        		.byte	63
 1652 00e5 37        		.byte	55
 1653 00e6 2E        		.byte	46
 1654 00e7 26        		.byte	38
 1655 00e8 20        		.byte	32
 1656 00e9 1D        		.byte	29
 1657 00ea 19        		.byte	25
 1658 00eb 14        		.byte	20
 1659 00ec 0F        		.byte	15
 1660 00ed 0B        		.byte	11
 1661 00ee 08        		.byte	8
 1662 00ef 06        		.byte	6
 1663 00f0 04        		.byte	4
 1664 00f1 02        		.byte	2
 1665 00f2 01        		.byte	1
 1666 00f3 01        		.byte	1
 1667 00f4 00        		.byte	0
 1668 00f5 00        		.byte	0
 1669               	.global	song2b
 1670               		.data
 1673               	song2b:
 1674 0008 6C00      		.word	108
 1675 000a 0000      		.word	song2bnotes
 1676               	.global	song2cnotes
 1677               		.section	.progmem.data
 1680               	song2cnotes:
 1681 00f6 02        		.byte	2
 1682 00f7 19        		.byte	25
 1683 00f8 46        		.byte	70
 1684 00f9 75        		.byte	117
 1685 00fa 92        		.byte	-110
 1686 00fb 90        		.byte	-112
 1687 00fc 6F        		.byte	111
 1688 00fd 3D        		.byte	61
 1689 00fe 12        		.byte	18
 1690 00ff 01        		.byte	1
 1691 0100 01        		.byte	1
 1692 0101 01        		.byte	1
 1693 0102 01        		.byte	1
 1694 0103 01        		.byte	1
 1695 0104 01        		.byte	1
 1696 0105 01        		.byte	1
GAS LISTING /var/folders/m6/h69rbtm16qg9rvj4_lszybhm0000gn/T//ccjkuZLT.s 			page 30


 1697 0106 01        		.byte	1
 1698 0107 08        		.byte	8
 1699 0108 12        		.byte	18
 1700 0109 1C        		.byte	28
 1701 010a 27        		.byte	39
 1702 010b 32        		.byte	50
 1703 010c 3C        		.byte	60
 1704 010d 45        		.byte	69
 1705 010e 4E        		.byte	78
 1706 010f 55        		.byte	85
 1707 0110 5C        		.byte	92
 1708 0111 63        		.byte	99
 1709 0112 69        		.byte	105
 1710 0113 6F        		.byte	111
 1711 0114 76        		.byte	118
 1712 0115 7E        		.byte	126
 1713 0116 86        		.byte	-122
 1714 0117 8E        		.byte	-114
 1715 0118 95        		.byte	-107
 1716 0119 9B        		.byte	-101
 1717 011a 9F        		.byte	-97
 1718 011b A1        		.byte	-95
 1719 011c A0        		.byte	-96
 1720 011d 9C        		.byte	-100
 1721 011e 98        		.byte	-104
 1722 011f 92        		.byte	-110
 1723 0120 8B        		.byte	-117
 1724 0121 86        		.byte	-122
 1725 0122 81        		.byte	-127
 1726 0123 7E        		.byte	126
 1727 0124 7D        		.byte	125
 1728 0125 7E        		.byte	126
 1729 0126 81        		.byte	-127
 1730 0127 86        		.byte	-122
 1731 0128 8C        		.byte	-116
 1732 0129 94        		.byte	-108
 1733 012a 9B        		.byte	-101
 1734 012b A2        		.byte	-94
 1735 012c A8        		.byte	-88
 1736 012d AB        		.byte	-85
 1737 012e AC        		.byte	-84
 1738 012f AB        		.byte	-85
 1739 0130 A8        		.byte	-88
 1740 0131 A3        		.byte	-93
 1741 0132 9E        		.byte	-98
 1742 0133 99        		.byte	-103
 1743 0134 95        		.byte	-107
 1744 0135 92        		.byte	-110
 1745 0136 90        		.byte	-112
 1746 0137 90        		.byte	-112
 1747 0138 92        		.byte	-110
 1748 0139 94        		.byte	-108
 1749 013a 97        		.byte	-105
 1750 013b 9A        		.byte	-102
 1751 013c 9D        		.byte	-99
 1752 013d 9E        		.byte	-98
 1753 013e 9E        		.byte	-98
GAS LISTING /var/folders/m6/h69rbtm16qg9rvj4_lszybhm0000gn/T//ccjkuZLT.s 			page 31


 1754 013f 9D        		.byte	-99
 1755 0140 9A        		.byte	-102
 1756 0141 96        		.byte	-106
 1757 0142 91        		.byte	-111
 1758 0143 8D        		.byte	-115
 1759 0144 89        		.byte	-119
 1760 0145 86        		.byte	-122
 1761 0146 85        		.byte	-123
 1762 0147 84        		.byte	-124
 1763 0148 86        		.byte	-122
 1764 0149 88        		.byte	-120
 1765 014a 8B        		.byte	-117
 1766 014b 8F        		.byte	-113
 1767 014c 93        		.byte	-109
 1768 014d 95        		.byte	-107
 1769 014e 96        		.byte	-106
 1770 014f 96        		.byte	-106
 1771 0150 93        		.byte	-109
 1772 0151 8F        		.byte	-113
 1773 0152 8A        		.byte	-118
 1774 0153 85        		.byte	-123
 1775 0154 80        		.byte	-128
 1776 0155 7B        		.byte	123
 1777 0156 76        		.byte	118
 1778 0157 73        		.byte	115
 1779 0158 71        		.byte	113
 1780 0159 6F        		.byte	111
 1781 015a 6D        		.byte	109
 1782 015b 6C        		.byte	108
 1783 015c 69        		.byte	105
 1784 015d 66        		.byte	102
 1785 015e 62        		.byte	98
 1786 015f 5C        		.byte	92
 1787 0160 56        		.byte	86
 1788 0161 4E        		.byte	78
 1789 0162 46        		.byte	70
 1790 0163 3F        		.byte	63
 1791 0164 37        		.byte	55
 1792 0165 30        		.byte	48
 1793 0166 2A        		.byte	42
 1794 0167 25        		.byte	37
 1795 0168 21        		.byte	33
 1796 0169 1D        		.byte	29
 1797 016a 19        		.byte	25
 1798 016b 16        		.byte	22
 1799 016c 13        		.byte	19
 1800 016d 10        		.byte	16
 1801 016e 0D        		.byte	13
 1802 016f 0A        		.byte	10
 1803 0170 07        		.byte	7
 1804 0171 05        		.byte	5
 1805 0172 03        		.byte	3
 1806 0173 02        		.byte	2
 1807 0174 01        		.byte	1
 1808 0175 01        		.byte	1
 1809 0176 00        		.byte	0
 1810 0177 00        		.byte	0
GAS LISTING /var/folders/m6/h69rbtm16qg9rvj4_lszybhm0000gn/T//ccjkuZLT.s 			page 32


 1811               	.global	song2c
 1812               		.data
 1815               	song2c:
 1816 000c 8200      		.word	130
 1817 000e 0000      		.word	song2cnotes
 1818               	.global	song2dnotes
 1819               		.section	.progmem.data
 1822               	song2dnotes:
 1823 0178 01        		.byte	1
 1824 0179 1B        		.byte	27
 1825 017a 48        		.byte	72
 1826 017b 6D        		.byte	109
 1827 017c 79        		.byte	121
 1828 017d 68        		.byte	104
 1829 017e 3D        		.byte	61
 1830 017f 11        		.byte	17
 1831 0180 01        		.byte	1
 1832 0181 01        		.byte	1
 1833 0182 01        		.byte	1
 1834 0183 01        		.byte	1
 1835 0184 01        		.byte	1
 1836 0185 01        		.byte	1
 1837 0186 01        		.byte	1
 1838 0187 0B        		.byte	11
 1839 0188 15        		.byte	21
 1840 0189 22        		.byte	34
 1841 018a 30        		.byte	48
 1842 018b 3C        		.byte	60
 1843 018c 46        		.byte	70
 1844 018d 4D        		.byte	77
 1845 018e 56        		.byte	86
 1846 018f 63        		.byte	99
 1847 0190 73        		.byte	115
 1848 0191 80        		.byte	-128
 1849 0192 87        		.byte	-121
 1850 0193 87        		.byte	-121
 1851 0194 86        		.byte	-122
 1852 0195 88        		.byte	-120
 1853 0196 8D        		.byte	-115
 1854 0197 90        		.byte	-112
 1855 0198 8F        		.byte	-113
 1856 0199 8B        		.byte	-117
 1857 019a 8A        		.byte	-118
 1858 019b 8D        		.byte	-115
 1859 019c 93        		.byte	-109
 1860 019d 94        		.byte	-108
 1861 019e 8E        		.byte	-114
 1862 019f 83        		.byte	-125
 1863 01a0 7B        		.byte	123
 1864 01a1 7E        		.byte	126
 1865 01a2 8A        		.byte	-118
 1866 01a3 99        		.byte	-103
 1867 01a4 A4        		.byte	-92
 1868 01a5 A6        		.byte	-90
 1869 01a6 A1        		.byte	-95
 1870 01a7 9C        		.byte	-100
 1871 01a8 9A        		.byte	-102
GAS LISTING /var/folders/m6/h69rbtm16qg9rvj4_lszybhm0000gn/T//ccjkuZLT.s 			page 33


 1872 01a9 9A        		.byte	-102
 1873 01aa 99        		.byte	-103
 1874 01ab 97        		.byte	-105
 1875 01ac 96        		.byte	-106
 1876 01ad 9B        		.byte	-101
 1877 01ae A3        		.byte	-93
 1878 01af A9        		.byte	-87
 1879 01b0 A6        		.byte	-90
 1880 01b1 98        		.byte	-104
 1881 01b2 88        		.byte	-120
 1882 01b3 7E        		.byte	126
 1883 01b4 80        		.byte	-128
 1884 01b5 8B        		.byte	-117
 1885 01b6 97        		.byte	-105
 1886 01b7 9C        		.byte	-100
 1887 01b8 99        		.byte	-103
 1888 01b9 92        		.byte	-110
 1889 01ba 8C        		.byte	-116
 1890 01bb 88        		.byte	-120
 1891 01bc 83        		.byte	-125
 1892 01bd 7B        		.byte	123
 1893 01be 73        		.byte	115
 1894 01bf 6E        		.byte	110
 1895 01c0 6E        		.byte	110
 1896 01c1 70        		.byte	112
 1897 01c2 6E        		.byte	110
 1898 01c3 64        		.byte	100
 1899 01c4 56        		.byte	86
 1900 01c5 49        		.byte	73
 1901 01c6 41        		.byte	65
 1902 01c7 3E        		.byte	62
 1903 01c8 3C        		.byte	60
 1904 01c9 3A        		.byte	58
 1905 01ca 34        		.byte	52
 1906 01cb 2E        		.byte	46
 1907 01cc 28        		.byte	40
 1908 01cd 23        		.byte	35
 1909 01ce 1F        		.byte	31
 1910 01cf 19        		.byte	25
 1911 01d0 14        		.byte	20
 1912 01d1 0F        		.byte	15
 1913 01d2 0B        		.byte	11
 1914 01d3 08        		.byte	8
 1915 01d4 06        		.byte	6
 1916 01d5 04        		.byte	4
 1917 01d6 02        		.byte	2
 1918 01d7 01        		.byte	1
 1919 01d8 01        		.byte	1
 1920 01d9 00        		.byte	0
 1921 01da 00        		.byte	0
 1922               	.global	song2d
 1923               		.data
 1926               	song2d:
 1927 0010 6300      		.word	99
 1928 0012 0000      		.word	song2dnotes
 1929               	.global	song2enotes
 1930               		.section	.progmem.data
GAS LISTING /var/folders/m6/h69rbtm16qg9rvj4_lszybhm0000gn/T//ccjkuZLT.s 			page 34


 1933               	song2enotes:
 1934 01db 01        		.byte	1
 1935 01dc 1A        		.byte	26
 1936 01dd 49        		.byte	73
 1937 01de 74        		.byte	116
 1938 01df 83        		.byte	-125
 1939 01e0 73        		.byte	115
 1940 01e1 50        		.byte	80
 1941 01e2 27        		.byte	39
 1942 01e3 08        		.byte	8
 1943 01e4 01        		.byte	1
 1944 01e5 01        		.byte	1
 1945 01e6 01        		.byte	1
 1946 01e7 01        		.byte	1
 1947 01e8 01        		.byte	1
 1948 01e9 01        		.byte	1
 1949 01ea 01        		.byte	1
 1950 01eb 06        		.byte	6
 1951 01ec 0F        		.byte	15
 1952 01ed 1A        		.byte	26
 1953 01ee 24        		.byte	36
 1954 01ef 2F        		.byte	47
 1955 01f0 3A        		.byte	58
 1956 01f1 46        		.byte	70
 1957 01f2 52        		.byte	82
 1958 01f3 5B        		.byte	91
 1959 01f4 62        		.byte	98
 1960 01f5 66        		.byte	102
 1961 01f6 6A        		.byte	106
 1962 01f7 6F        		.byte	111
 1963 01f8 77        		.byte	119
 1964 01f9 83        		.byte	-125
 1965 01fa 90        		.byte	-112
 1966 01fb 9A        		.byte	-102
 1967 01fc 9D        		.byte	-99
 1968 01fd 99        		.byte	-103
 1969 01fe 90        		.byte	-112
 1970 01ff 89        		.byte	-119
 1971 0200 86        		.byte	-122
 1972 0201 89        		.byte	-119
 1973 0202 92        		.byte	-110
 1974 0203 9A        		.byte	-102
 1975 0204 9E        		.byte	-98
 1976 0205 9C        		.byte	-100
 1977 0206 95        		.byte	-107
 1978 0207 8D        		.byte	-115
 1979 0208 89        		.byte	-119
 1980 0209 8A        		.byte	-118
 1981 020a 8F        		.byte	-113
 1982 020b 97        		.byte	-105
 1983 020c 9D        		.byte	-99
 1984 020d 9E        		.byte	-98
 1985 020e 9B        		.byte	-101
 1986 020f 97        		.byte	-105
 1987 0210 94        		.byte	-108
 1988 0211 96        		.byte	-106
 1989 0212 9A        		.byte	-102
GAS LISTING /var/folders/m6/h69rbtm16qg9rvj4_lszybhm0000gn/T//ccjkuZLT.s 			page 35


 1990 0213 9E        		.byte	-98
 1991 0214 A0        		.byte	-96
 1992 0215 9E        		.byte	-98
 1993 0216 99        		.byte	-103
 1994 0217 94        		.byte	-108
 1995 0218 90        		.byte	-112
 1996 0219 91        		.byte	-111
 1997 021a 93        		.byte	-109
 1998 021b 96        		.byte	-106
 1999 021c 96        		.byte	-106
 2000 021d 92        		.byte	-110
 2001 021e 8C        		.byte	-116
 2002 021f 85        		.byte	-123
 2003 0220 82        		.byte	-126
 2004 0221 83        		.byte	-125
 2005 0222 87        		.byte	-121
 2006 0223 8C        		.byte	-116
 2007 0224 8F        		.byte	-113
 2008 0225 90        		.byte	-112
 2009 0226 8E        		.byte	-114
 2010 0227 8D        		.byte	-115
 2011 0228 8D        		.byte	-115
 2012 0229 90        		.byte	-112
 2013 022a 95        		.byte	-107
 2014 022b 99        		.byte	-103
 2015 022c 9C        		.byte	-100
 2016 022d 9D        		.byte	-99
 2017 022e 9D        		.byte	-99
 2018 022f 9D        		.byte	-99
 2019 0230 A0        		.byte	-96
 2020 0231 A4        		.byte	-92
 2021 0232 A7        		.byte	-89
 2022 0233 A7        		.byte	-89
 2023 0234 A1        		.byte	-95
 2024 0235 99        		.byte	-103
 2025 0236 91        		.byte	-111
 2026 0237 8E        		.byte	-114
 2027 0238 8F        		.byte	-113
 2028 0239 95        		.byte	-107
 2029 023a 9A        		.byte	-102
 2030 023b 9B        		.byte	-101
 2031 023c 95        		.byte	-107
 2032 023d 89        		.byte	-119
 2033 023e 7C        		.byte	124
 2034 023f 73        		.byte	115
 2035 0240 70        		.byte	112
 2036 0241 74        		.byte	116
 2037 0242 7B        		.byte	123
 2038 0243 80        		.byte	-128
 2039 0244 80        		.byte	-128
 2040 0245 79        		.byte	121
 2041 0246 6E        		.byte	110
 2042 0247 63        		.byte	99
 2043 0248 5B        		.byte	91
 2044 0249 58        		.byte	88
 2045 024a 58        		.byte	88
 2046 024b 59        		.byte	89
GAS LISTING /var/folders/m6/h69rbtm16qg9rvj4_lszybhm0000gn/T//ccjkuZLT.s 			page 36


 2047 024c 57        		.byte	87
 2048 024d 53        		.byte	83
 2049 024e 4B        		.byte	75
 2050 024f 42        		.byte	66
 2051 0250 39        		.byte	57
 2052 0251 32        		.byte	50
 2053 0252 2C        		.byte	44
 2054 0253 26        		.byte	38
 2055 0254 22        		.byte	34
 2056 0255 1D        		.byte	29
 2057 0256 19        		.byte	25
 2058 0257 14        		.byte	20
 2059 0258 11        		.byte	17
 2060 0259 0D        		.byte	13
 2061 025a 09        		.byte	9
 2062 025b 07        		.byte	7
 2063 025c 04        		.byte	4
 2064 025d 03        		.byte	3
 2065 025e 01        		.byte	1
 2066 025f 01        		.byte	1
 2067 0260 00        		.byte	0
 2068 0261 01        		.byte	1
 2069 0262 00        		.byte	0
 2070               	.global	song2e
 2071               		.data
 2074               	song2e:
 2075 0014 8800      		.word	136
 2076 0016 0000      		.word	song2enotes
 2077               	.global	song2fnotes
 2078               		.section	.progmem.data
 2081               	song2fnotes:
 2082 0263 02        		.byte	2
 2083 0264 24        		.byte	36
 2084 0265 5E        		.byte	94
 2085 0266 82        		.byte	-126
 2086 0267 79        		.byte	121
 2087 0268 4F        		.byte	79
 2088 0269 1B        		.byte	27
 2089 026a 01        		.byte	1
 2090 026b 01        		.byte	1
 2091 026c 01        		.byte	1
 2092 026d 01        		.byte	1
 2093 026e 01        		.byte	1
 2094 026f 01        		.byte	1
 2095 0270 05        		.byte	5
 2096 0271 10        		.byte	16
 2097 0272 1E        		.byte	30
 2098 0273 2D        		.byte	45
 2099 0274 3B        		.byte	59
 2100 0275 47        		.byte	71
 2101 0276 52        		.byte	82
 2102 0277 5E        		.byte	94
 2103 0278 6B        		.byte	107
 2104 0279 77        		.byte	119
 2105 027a 82        		.byte	-126
 2106 027b 89        		.byte	-119
 2107 027c 8E        		.byte	-114
GAS LISTING /var/folders/m6/h69rbtm16qg9rvj4_lszybhm0000gn/T//ccjkuZLT.s 			page 37


 2108 027d 93        		.byte	-109
 2109 027e 97        		.byte	-105
 2110 027f 9A        		.byte	-102
 2111 0280 99        		.byte	-103
 2112 0281 95        		.byte	-107
 2113 0282 90        		.byte	-112
 2114 0283 8D        		.byte	-115
 2115 0284 8D        		.byte	-115
 2116 0285 8F        		.byte	-113
 2117 0286 8F        		.byte	-113
 2118 0287 8C        		.byte	-116
 2119 0288 86        		.byte	-122
 2120 0289 83        		.byte	-125
 2121 028a 87        		.byte	-121
 2122 028b 91        		.byte	-111
 2123 028c A0        		.byte	-96
 2124 028d AB        		.byte	-85
 2125 028e AC        		.byte	-84
 2126 028f A3        		.byte	-93
 2127 0290 96        		.byte	-106
 2128 0291 8D        		.byte	-115
 2129 0292 8C        		.byte	-116
 2130 0293 91        		.byte	-111
 2131 0294 97        		.byte	-105
 2132 0295 98        		.byte	-104
 2133 0296 93        		.byte	-109
 2134 0297 8A        		.byte	-118
 2135 0298 86        		.byte	-122
 2136 0299 88        		.byte	-120
 2137 029a 93        		.byte	-109
 2138 029b 9F        		.byte	-97
 2139 029c A5        		.byte	-91
 2140 029d A2        		.byte	-94
 2141 029e 98        		.byte	-104
 2142 029f 8C        		.byte	-116
 2143 02a0 84        		.byte	-124
 2144 02a1 81        		.byte	-127
 2145 02a2 83        		.byte	-125
 2146 02a3 84        		.byte	-124
 2147 02a4 83        		.byte	-125
 2148 02a5 7F        		.byte	127
 2149 02a6 7B        		.byte	123
 2150 02a7 77        		.byte	119
 2151 02a8 74        		.byte	116
 2152 02a9 70        		.byte	112
 2153 02aa 69        		.byte	105
 2154 02ab 60        		.byte	96
 2155 02ac 56        		.byte	86
 2156 02ad 4D        		.byte	77
 2157 02ae 45        		.byte	69
 2158 02af 3E        		.byte	62
 2159 02b0 36        		.byte	54
 2160 02b1 2D        		.byte	45
 2161 02b2 26        		.byte	38
 2162 02b3 1F        		.byte	31
 2163 02b4 1B        		.byte	27
 2164 02b5 17        		.byte	23
GAS LISTING /var/folders/m6/h69rbtm16qg9rvj4_lszybhm0000gn/T//ccjkuZLT.s 			page 38


 2165 02b6 13        		.byte	19
 2166 02b7 0E        		.byte	14
 2167 02b8 0A        		.byte	10
 2168 02b9 06        		.byte	6
 2169 02ba 04        		.byte	4
 2170 02bb 02        		.byte	2
 2171 02bc 01        		.byte	1
 2172 02bd 01        		.byte	1
 2173 02be 00        		.byte	0
 2174 02bf 00        		.byte	0
 2175               	.global	song2f
 2176               		.data
 2179               	song2f:
 2180 0018 5D00      		.word	93
 2181 001a 0000      		.word	song2fnotes
 2182               	.global	song2gnotes
 2183               		.section	.progmem.data
 2186               	song2gnotes:
 2187 02c0 02        		.byte	2
 2188 02c1 2A        		.byte	42
 2189 02c2 63        		.byte	99
 2190 02c3 79        		.byte	121
 2191 02c4 60        		.byte	96
 2192 02c5 2A        		.byte	42
 2193 02c6 03        		.byte	3
 2194 02c7 01        		.byte	1
 2195 02c8 01        		.byte	1
 2196 02c9 01        		.byte	1
 2197 02ca 01        		.byte	1
 2198 02cb 01        		.byte	1
 2199 02cc 0C        		.byte	12
 2200 02cd 19        		.byte	25
 2201 02ce 29        		.byte	41
 2202 02cf 3C        		.byte	60
 2203 02d0 4D        		.byte	77
 2204 02d1 56        		.byte	86
 2205 02d2 5B        		.byte	91
 2206 02d3 64        		.byte	100
 2207 02d4 76        		.byte	118
 2208 02d5 88        		.byte	-120
 2209 02d6 90        		.byte	-112
 2210 02d7 8F        		.byte	-113
 2211 02d8 8D        		.byte	-115
 2212 02d9 92        		.byte	-110
 2213 02da 99        		.byte	-103
 2214 02db 9B        		.byte	-101
 2215 02dc 99        		.byte	-103
 2216 02dd 98        		.byte	-104
 2217 02de 9B        		.byte	-101
 2218 02df 9A        		.byte	-102
 2219 02e0 94        		.byte	-108
 2220 02e1 8D        		.byte	-115
 2221 02e2 8E        		.byte	-114
 2222 02e3 98        		.byte	-104
 2223 02e4 9F        		.byte	-97
 2224 02e5 9A        		.byte	-102
 2225 02e6 8E        		.byte	-114
GAS LISTING /var/folders/m6/h69rbtm16qg9rvj4_lszybhm0000gn/T//ccjkuZLT.s 			page 39


 2226 02e7 88        		.byte	-120
 2227 02e8 8D        		.byte	-115
 2228 02e9 98        		.byte	-104
 2229 02ea 99        		.byte	-103
 2230 02eb 8F        		.byte	-113
 2231 02ec 84        		.byte	-124
 2232 02ed 7E        		.byte	126
 2233 02ee 7C        		.byte	124
 2234 02ef 78        		.byte	120
 2235 02f0 6F        		.byte	111
 2236 02f1 65        		.byte	101
 2237 02f2 5C        		.byte	92
 2238 02f3 53        		.byte	83
 2239 02f4 48        		.byte	72
 2240 02f5 3B        		.byte	59
 2241 02f6 31        		.byte	49
 2242 02f7 2B        		.byte	43
 2243 02f8 26        		.byte	38
 2244 02f9 1E        		.byte	30
 2245 02fa 15        		.byte	21
 2246 02fb 0F        		.byte	15
 2247 02fc 0B        		.byte	11
 2248 02fd 08        		.byte	8
 2249 02fe 05        		.byte	5
 2250 02ff 03        		.byte	3
 2251 0300 01        		.byte	1
 2252 0301 01        		.byte	1
 2253 0302 00        		.byte	0
 2254 0303 00        		.byte	0
 2255               	.global	song2g
 2256               		.data
 2259               	song2g:
 2260 001c 4400      		.word	68
 2261 001e 0000      		.word	song2gnotes
 2262               	.global	bootsongs
 2265               	bootsongs:
 2266 0020 0000      		.word	bootsong
 2267               	.global	songs
 2270               	songs:
 2271 0022 0000      		.word	song2a
 2272 0024 0000      		.word	song2b
 2273 0026 0000      		.word	song2b
 2274 0028 0000      		.word	song2c
 2275 002a 0000      		.word	song2c
 2276 002c 0000      		.word	song2c
 2277 002e 0000      		.word	song2d
 2278 0030 0000      		.word	song2d
 2279 0032 0000      		.word	song2e
 2280 0034 0000      		.word	song2e
 2281 0036 0000      		.word	song2e
 2282 0038 0000      		.word	song2f
 2283 003a 0000      		.word	song2f
 2284 003c 0000      		.word	song2g
 2285 003e 0000      		.word	song2g
 2286 0040 0000      		.word	song2g
 2287               	.global	bitmasks
 2288               		.section	.progmem.data
GAS LISTING /var/folders/m6/h69rbtm16qg9rvj4_lszybhm0000gn/T//ccjkuZLT.s 			page 40


 2291               	bitmasks:
 2292 0304 00        		.byte	0
 2293 0305 01        		.byte	1
 2294 0306 03        		.byte	3
 2295 0307 07        		.byte	7
 2296 0308 0F        		.byte	15
 2297 0309 1F        		.byte	31
 2298 030a 3F        		.byte	63
 2299 030b 7F        		.byte	127
 2300 030c FF        		.byte	-1
 2301               	.global	about
 2304               	about:
 2305 030d 4A61 7220 		.ascii	"Jar of Fireflies\nDesign and Implementation by Xander Hudson"
 2305      6F66 2046 
 2305      6972 6566 
 2305      6C69 6573 
 2305      0A44 6573 
 2306 0348 2028 6A61 		.ascii	" (jar@synoptic.org)\nIdea and Inspiration by Kayobi Tierney\n"
 2306      7240 7379 
 2306      6E6F 7074 
 2306      6963 2E6F 
 2306      7267 290A 
 2307 0383 5370 6563 		.ascii	"Specia"
 2307      6961 
 2308 0389 6C20 7468 		.string	"l thanks to Katie Horn for getting me to think about electronics"
 2308      616E 6B73 
 2308      2074 6F20 
 2308      4B61 7469 
 2308      6520 486F 
 2309               	.global	version
 2312               	version:
 2313 03ca 2452 6576 		.string	"$Revision: 1.41 $ $Date: 2007/01/10 04:35:55 $"
 2313      6973 696F 
 2313      6E3A 2031 
 2313      2E34 3120 
 2313      2420 2444 
 2314               	.global	mood
 2315               		.data
 2318               	mood:
 2319 0042 02        		.byte	2
 2320               	.global	mood_count
 2323               	mood_count:
 2324 0043 1E00      		.word	30
 2325               		.lcomm temp.1721,1
 2326               		.lcomm ch2noteptr.1720,2
 2327               		.lcomm ch1noteptr.1719,2
 2328               		.lcomm ch2song.1718,2
 2329               		.lcomm ch1song.1717,2
 2332               	lfsr.1631:
 2333 0045 CE74      		.word	29902
 2334               		.lcomm ticker.1618,1
 2337               	ch1pins.1520:
 2338 0047 08        		.byte	8
 2339 0048 04        		.byte	4
 2340 0049 01        		.byte	1
 2343               	masterpins.1519:
 2344 004a 10        		.byte	16
GAS LISTING /var/folders/m6/h69rbtm16qg9rvj4_lszybhm0000gn/T//ccjkuZLT.s 			page 41


 2345 004b 02        		.byte	2
 2346               		.lcomm x.1435,1
 2349               	debounce.1682:
 2350 004c 0A        		.byte	10
 2351               		.comm ch1restcount,1,1
 2352               		.comm ch2restcount,1,1
 2353               		.comm ch1nextnote,1,1
 2354               		.comm ch2nextnote,1,1
 2355               		.comm ch1scale,1,1
 2356               		.comm ch2scale,1,1
 2357               		.comm ch1nextscale,1,1
 2358               		.comm ch2nextscale,1,1
 2359               		.comm masterpinmask,1,1
 2360               		.comm waiting_for_dark,1,1
 2361               		.comm is_dark,1,1
 2362               		.comm force_dark,1,1
 2467               	.Letext0:
GAS LISTING /var/folders/m6/h69rbtm16qg9rvj4_lszybhm0000gn/T//ccjkuZLT.s 			page 42


DEFINED SYMBOLS
                            *ABS*:00000000 firefly.c
/var/folders/m6/h69rbtm16qg9rvj4_lszybhm0000gn/T//ccjkuZLT.s:2      *ABS*:0000003f __SREG__
/var/folders/m6/h69rbtm16qg9rvj4_lszybhm0000gn/T//ccjkuZLT.s:3      *ABS*:0000003e __SP_H__
/var/folders/m6/h69rbtm16qg9rvj4_lszybhm0000gn/T//ccjkuZLT.s:4      *ABS*:0000003d __SP_L__
/var/folders/m6/h69rbtm16qg9rvj4_lszybhm0000gn/T//ccjkuZLT.s:5      *ABS*:00000034 __CCP__
/var/folders/m6/h69rbtm16qg9rvj4_lszybhm0000gn/T//ccjkuZLT.s:6      *ABS*:00000000 __tmp_reg__
/var/folders/m6/h69rbtm16qg9rvj4_lszybhm0000gn/T//ccjkuZLT.s:7      *ABS*:00000001 __zero_reg__
/var/folders/m6/h69rbtm16qg9rvj4_lszybhm0000gn/T//ccjkuZLT.s:18     .text:00000000 __vector_12
                            *COM*:00000001 force_dark
/var/folders/m6/h69rbtm16qg9rvj4_lszybhm0000gn/T//ccjkuZLT.s:2349   .data:0000004c debounce.1682
                            *COM*:00000001 is_dark
                            *COM*:00000001 ch1restcount
                            *COM*:00000001 ch2restcount
/var/folders/m6/h69rbtm16qg9rvj4_lszybhm0000gn/T//ccjkuZLT.s:2323   .data:00000043 mood_count
/var/folders/m6/h69rbtm16qg9rvj4_lszybhm0000gn/T//ccjkuZLT.s:148    .text:000000c2 __vector_10
                            *COM*:00000001 waiting_for_dark
/var/folders/m6/h69rbtm16qg9rvj4_lszybhm0000gn/T//ccjkuZLT.s:2334   .bss:0000000a x.1435
                            *COM*:00000001 ch1nextnote
                            *COM*:00000001 ch2nextnote
                            *COM*:00000001 masterpinmask
/var/folders/m6/h69rbtm16qg9rvj4_lszybhm0000gn/T//ccjkuZLT.s:287    .text:00000186 von_320
/var/folders/m6/h69rbtm16qg9rvj4_lszybhm0000gn/T//ccjkuZLT.s:289    .text:00000188 turnon_320
/var/folders/m6/h69rbtm16qg9rvj4_lszybhm0000gn/T//ccjkuZLT.s:293    .text:0000018e turnoff_320
/var/folders/m6/h69rbtm16qg9rvj4_lszybhm0000gn/T//ccjkuZLT.s:295    .text:00000190 done_320
/var/folders/m6/h69rbtm16qg9rvj4_lszybhm0000gn/T//ccjkuZLT.s:311    .text:000001a0 von_328
/var/folders/m6/h69rbtm16qg9rvj4_lszybhm0000gn/T//ccjkuZLT.s:313    .text:000001a2 turnon_328
/var/folders/m6/h69rbtm16qg9rvj4_lszybhm0000gn/T//ccjkuZLT.s:317    .text:000001a8 turnoff_328
/var/folders/m6/h69rbtm16qg9rvj4_lszybhm0000gn/T//ccjkuZLT.s:319    .text:000001aa done_328
/var/folders/m6/h69rbtm16qg9rvj4_lszybhm0000gn/T//ccjkuZLT.s:336    .text:000001b6 showbootup
/var/folders/m6/h69rbtm16qg9rvj4_lszybhm0000gn/T//ccjkuZLT.s:2265   .data:00000020 bootsongs
/var/folders/m6/h69rbtm16qg9rvj4_lszybhm0000gn/T//ccjkuZLT.s:2343   .data:0000004a masterpins.1519
/var/folders/m6/h69rbtm16qg9rvj4_lszybhm0000gn/T//ccjkuZLT.s:2337   .data:00000047 ch1pins.1520
/var/folders/m6/h69rbtm16qg9rvj4_lszybhm0000gn/T//ccjkuZLT.s:508    .text:00000276 randbits
/var/folders/m6/h69rbtm16qg9rvj4_lszybhm0000gn/T//ccjkuZLT.s:2332   .data:00000045 lfsr.1631
/var/folders/m6/h69rbtm16qg9rvj4_lszybhm0000gn/T//ccjkuZLT.s:2291   .progmem.data:00000304 bitmasks
/var/folders/m6/h69rbtm16qg9rvj4_lszybhm0000gn/T//ccjkuZLT.s:568    .text:000002b8 pickmaster
/var/folders/m6/h69rbtm16qg9rvj4_lszybhm0000gn/T//ccjkuZLT.s:2329   .bss:00000009 ticker.1618
/var/folders/m6/h69rbtm16qg9rvj4_lszybhm0000gn/T//ccjkuZLT.s:601    .text:000002de pickapin
/var/folders/m6/h69rbtm16qg9rvj4_lszybhm0000gn/T//ccjkuZLT.s:666    .text:0000031e randscaleval
/var/folders/m6/h69rbtm16qg9rvj4_lszybhm0000gn/T//ccjkuZLT.s:706    .text:00000356 randwaitval
/var/folders/m6/h69rbtm16qg9rvj4_lszybhm0000gn/T//ccjkuZLT.s:2318   .data:00000042 mood
/var/folders/m6/h69rbtm16qg9rvj4_lszybhm0000gn/T//ccjkuZLT.s:756    .text:000003a4 pickasong
/var/folders/m6/h69rbtm16qg9rvj4_lszybhm0000gn/T//ccjkuZLT.s:2270   .data:00000022 songs
/var/folders/m6/h69rbtm16qg9rvj4_lszybhm0000gn/T//ccjkuZLT.s:784    .text:000003c4 lighted_fireflies
                             .bss:00000000 temp.1721
/var/folders/m6/h69rbtm16qg9rvj4_lszybhm0000gn/T//ccjkuZLT.s:2326   .bss:00000003 ch1noteptr.1719
/var/folders/m6/h69rbtm16qg9rvj4_lszybhm0000gn/T//ccjkuZLT.s:2328   .bss:00000007 ch1song.1717
                            *COM*:00000001 ch1scale
/var/folders/m6/h69rbtm16qg9rvj4_lszybhm0000gn/T//ccjkuZLT.s:2325   .bss:00000001 ch2noteptr.1720
/var/folders/m6/h69rbtm16qg9rvj4_lszybhm0000gn/T//ccjkuZLT.s:2327   .bss:00000005 ch2song.1718
                            *COM*:00000001 ch2scale
/var/folders/m6/h69rbtm16qg9rvj4_lszybhm0000gn/T//ccjkuZLT.s:1219   .text:000005fc main
/var/folders/m6/h69rbtm16qg9rvj4_lszybhm0000gn/T//ccjkuZLT.s:1398   .progmem.data:00000000 bootsongnotes
/var/folders/m6/h69rbtm16qg9rvj4_lszybhm0000gn/T//ccjkuZLT.s:1422   .data:00000000 bootsong
/var/folders/m6/h69rbtm16qg9rvj4_lszybhm0000gn/T//ccjkuZLT.s:1429   .progmem.data:00000013 song2anotes
/var/folders/m6/h69rbtm16qg9rvj4_lszybhm0000gn/T//ccjkuZLT.s:1553   .data:00000004 song2a
GAS LISTING /var/folders/m6/h69rbtm16qg9rvj4_lszybhm0000gn/T//ccjkuZLT.s 			page 43


/var/folders/m6/h69rbtm16qg9rvj4_lszybhm0000gn/T//ccjkuZLT.s:1560   .progmem.data:0000008a song2bnotes
/var/folders/m6/h69rbtm16qg9rvj4_lszybhm0000gn/T//ccjkuZLT.s:1673   .data:00000008 song2b
/var/folders/m6/h69rbtm16qg9rvj4_lszybhm0000gn/T//ccjkuZLT.s:1680   .progmem.data:000000f6 song2cnotes
/var/folders/m6/h69rbtm16qg9rvj4_lszybhm0000gn/T//ccjkuZLT.s:1815   .data:0000000c song2c
/var/folders/m6/h69rbtm16qg9rvj4_lszybhm0000gn/T//ccjkuZLT.s:1822   .progmem.data:00000178 song2dnotes
/var/folders/m6/h69rbtm16qg9rvj4_lszybhm0000gn/T//ccjkuZLT.s:1926   .data:00000010 song2d
/var/folders/m6/h69rbtm16qg9rvj4_lszybhm0000gn/T//ccjkuZLT.s:1933   .progmem.data:000001db song2enotes
/var/folders/m6/h69rbtm16qg9rvj4_lszybhm0000gn/T//ccjkuZLT.s:2074   .data:00000014 song2e
/var/folders/m6/h69rbtm16qg9rvj4_lszybhm0000gn/T//ccjkuZLT.s:2081   .progmem.data:00000263 song2fnotes
/var/folders/m6/h69rbtm16qg9rvj4_lszybhm0000gn/T//ccjkuZLT.s:2179   .data:00000018 song2f
/var/folders/m6/h69rbtm16qg9rvj4_lszybhm0000gn/T//ccjkuZLT.s:2186   .progmem.data:000002c0 song2gnotes
/var/folders/m6/h69rbtm16qg9rvj4_lszybhm0000gn/T//ccjkuZLT.s:2259   .data:0000001c song2g
/var/folders/m6/h69rbtm16qg9rvj4_lszybhm0000gn/T//ccjkuZLT.s:2304   .progmem.data:0000030d about
/var/folders/m6/h69rbtm16qg9rvj4_lszybhm0000gn/T//ccjkuZLT.s:2312   .progmem.data:000003ca version
                            *COM*:00000001 ch1nextscale
                            *COM*:00000001 ch2nextscale

UNDEFINED SYMBOLS
__mulhi3
__do_copy_data
__do_clear_bss
