GAS LISTING /var/folders/co/coknbUWaExmsbK3adiW3-++++TI/-Tmp-//cc58MKou.s 			page 1


   1               		.file	"firefly.c"
   2               	__SREG__ = 0x3f
   3               	__SP_H__ = 0x3e
   4               	__SP_L__ = 0x3d
   5               	__CCP__  = 0x34
   6               	__tmp_reg__ = 0
   7               	__zero_reg__ = 1
  15               	.Ltext0:
  16               	.global	__vector_12
  18               	__vector_12:
  19               	.LFB2:
  20               	.LM1:
  21 0000 1F92      		push __zero_reg__
  22 0002 0F92      		push r0
  23 0004 0FB6      		in r0,__SREG__
  24 0006 0F92      		push r0
  25 0008 1124      		clr __zero_reg__
  26 000a 8F93      		push r24
  27 000c 9F93      		push r25
  28               	/* prologue: Signal */
  29               	/* frame size = 0 */
  30               	.LBB13:
  31               	.LBB14:
  32               	.LBB15:
  33               	.LBB16:
  34               	.LM2:
  35 000e 80B5      		in r24,64-32
  36 0010 8E7F      		andi r24,lo8(-2)
  37 0012 80BD      		out 64-32,r24
  38               	.LM3:
  39 0014 80E2      		ldi r24,lo8(32)
  40 0016 87B9      		out 39-32,r24
  41               	.L2:
  42               	.LM4:
  43 0018 3699      		sbic 38-32,6
  44 001a 00C0      		rjmp .L2
  45               	.LM5:
  46 001c 80EC      		ldi r24,lo8(-64)
  47 001e 86B9      		out 38-32,r24
  48               	.L3:
  49               	.LM6:
  50 0020 3699      		sbic 38-32,6
  51 0022 00C0      		rjmp .L3
  52               	.LM7:
  53 0024 95B1      		in r25,37-32
  54               	.LVL0:
  55               	.LM8:
  56 0026 3798      		cbi 38-32,7
  57               	.LM9:
  58 0028 80B5      		in r24,64-32
  59 002a 8160      		ori r24,lo8(1)
  60 002c 80BD      		out 64-32,r24
  61               	.LBE16:
  62               	.LBE15:
  63               	.LM10:
  64 002e 9D3C      		cpi r25,lo8(-51)
  65 0030 00F4      		brsh .L4
GAS LISTING /var/folders/co/coknbUWaExmsbK3adiW3-++++TI/-Tmp-//cc58MKou.s 			page 2


  66 0032 8091 0000 		lds r24,force_dark
  67 0036 8823      		tst r24
  68 0038 01F0      		breq .L5
  69               	.L4:
  70               	.LM11:
  71 003a 8091 0000 		lds r24,debounce.1683
  72 003e 8150      		subi r24,lo8(-(-1))
  73 0040 8093 0000 		sts debounce.1683,r24
  74 0044 8F5F      		subi r24,lo8(-(1))
  75 0046 01F4      		brne .L6
  76               	.LM12:
  77 0048 8AE0      		ldi r24,lo8(10)
  78 004a 8093 0000 		sts debounce.1683,r24
  79               	.LM13:
  80 004e 81E0      		ldi r24,lo8(1)
  81 0050 8093 0000 		sts is_dark,r24
  82 0054 00C0      		rjmp .L6
  83               	.L5:
  84               	.LM14:
  85 0056 8AE0      		ldi r24,lo8(10)
  86 0058 8093 0000 		sts debounce.1683,r24
  87               	.LM15:
  88 005c 1092 0000 		sts is_dark,__zero_reg__
  89               	.L6:
  90               	.LBE14:
  91               	.LBE13:
  92               	.LM16:
  93 0060 899B      		sbis 49-32,1
  94 0062 00C0      		rjmp .L7
  95 0064 8091 0000 		lds r24,ch1restcount
  96 0068 8150      		subi r24,lo8(-(-1))
  97 006a 8093 0000 		sts ch1restcount,r24
  98 006e 8091 0000 		lds r24,ch1restcount
  99 0072 8823      		tst r24
 100 0074 01F4      		brne .L7
 101 0076 8998      		cbi 49-32,1
 102               	.L7:
 103               	.LM17:
 104 0078 8B9B      		sbis 49-32,3
 105 007a 00C0      		rjmp .L8
 106 007c 8091 0000 		lds r24,ch2restcount
 107 0080 8150      		subi r24,lo8(-(-1))
 108 0082 8093 0000 		sts ch2restcount,r24
 109 0086 8091 0000 		lds r24,ch2restcount
 110 008a 8823      		tst r24
 111 008c 01F4      		brne .L8
 112 008e 8B98      		cbi 49-32,3
 113               	.L8:
 114               	.LM18:
 115 0090 8C99      		sbic 49-32,4
 116 0092 00C0      		rjmp .L10
 117 0094 8091 0000 		lds r24,mood_count
 118 0098 9091 0000 		lds r25,(mood_count)+1
 119 009c 0197      		sbiw r24,1
 120 009e 9093 0000 		sts (mood_count)+1,r25
 121 00a2 8093 0000 		sts mood_count,r24
 122 00a6 892B      		or r24,r25
GAS LISTING /var/folders/co/coknbUWaExmsbK3adiW3-++++TI/-Tmp-//cc58MKou.s 			page 3


 123 00a8 01F4      		brne .L10
 124 00aa 8C9A      		sbi 49-32,4
 125               	.L10:
 126               	/* epilogue start */
 127               	.LM19:
 128 00ac 9F91      		pop r25
 129               	.LVL1:
 130 00ae 8F91      		pop r24
 131 00b0 0F90      		pop r0
 132 00b2 0FBE      		out __SREG__,r0
 133 00b4 0F90      		pop r0
 134 00b6 1F90      		pop __zero_reg__
 135 00b8 1895      		reti
 136               	.LFE2:
 138               	.global	__vector_10
 140               	__vector_10:
 141               	.LFB3:
 142               	.LM20:
 143 00ba 1F92      		push __zero_reg__
 144 00bc 0F92      		push r0
 145 00be 0FB6      		in r0,__SREG__
 146 00c0 0F92      		push r0
 147 00c2 1124      		clr __zero_reg__
 148 00c4 8F93      		push r24
 149               	/* prologue: Signal */
 150               	/* frame size = 0 */
 151               	.LM21:
 152 00c6 8091 0000 		lds r24,waiting_for_dark
 153 00ca 8823      		tst r24
 154 00cc 01F0      		breq .+2
 155 00ce 00C0      		rjmp .L27
 156               	.LM22:
 157 00d0 88BA      		out 56-32,r8
 158               	.LM23:
 159 00d2 8091 0000 		lds r24,x.1435
 160 00d6 8150      		subi r24,lo8(-(-1))
 161 00d8 8093 0000 		sts x.1435,r24
 162 00dc 8F5F      		subi r24,lo8(-(1))
 163 00de 01F0      		breq .+2
 164 00e0 00C0      		rjmp .L15
 165               	.LM24:
 166 00e2 889B      		sbis 49-32,0
 167 00e4 00C0      		rjmp .L16
 168               	.LM25:
 169 00e6 8E9B      		sbis 49-32,6
 170 00e8 00C0      		rjmp .L17
 171               	.LM26:
 172 00ea 8091 0000 		lds r24,ch1nextnote
 173 00ee 282E      		mov r2,r24
 174               	.LM27:
 175 00f0 8E98      		cbi 49-32,6
 176 00f2 00C0      		rjmp .L18
 177               	.L17:
 178               	.LM28:
 179 00f4 2224      		clr r2
 180               	.LM29:
 181 00f6 8091 0000 		lds r24,ch1restcount
GAS LISTING /var/folders/co/coknbUWaExmsbK3adiW3-++++TI/-Tmp-//cc58MKou.s 			page 4


 182 00fa 8823      		tst r24
 183 00fc 01F0      		breq .L18
 184               	.LM30:
 185 00fe 8898      		cbi 49-32,0
 186               	.LM31:
 187 0100 899A      		sbi 49-32,1
 188 0102 00C0      		rjmp .L18
 189               	.L16:
 190               	.LM32:
 191 0104 8999      		sbic 49-32,1
 192 0106 00C0      		rjmp .L18
 193 0108 8E9B      		sbis 49-32,6
 194 010a 00C0      		rjmp .L18
 195               	.LM33:
 196 010c 8091 0000 		lds r24,ch1nextnote
 197 0110 282E      		mov r2,r24
 198               	.LM34:
 199 0112 8E98      		cbi 49-32,6
 200               	.LM35:
 201 0114 889A      		sbi 49-32,0
 202               	.L18:
 203               	.LM36:
 204 0116 8A9B      		sbis 49-32,2
 205 0118 00C0      		rjmp .L19
 206               	.LM37:
 207 011a 8F9B      		sbis 49-32,7
 208 011c 00C0      		rjmp .L20
 209               	.LM38:
 210 011e 8091 0000 		lds r24,ch2nextnote
 211 0122 382E      		mov r3,r24
 212               	.LM39:
 213 0124 8F98      		cbi 49-32,7
 214 0126 00C0      		rjmp .L21
 215               	.L20:
 216               	.LM40:
 217 0128 3324      		clr r3
 218               	.LM41:
 219 012a 8091 0000 		lds r24,ch2restcount
 220 012e 8823      		tst r24
 221 0130 01F0      		breq .L21
 222               	.LM42:
 223 0132 8A98      		cbi 49-32,2
 224               	.LM43:
 225 0134 8B9A      		sbi 49-32,3
 226 0136 00C0      		rjmp .L21
 227               	.L19:
 228               	.LM44:
 229 0138 8B99      		sbic 49-32,3
 230 013a 00C0      		rjmp .L21
 231 013c 8F9B      		sbis 49-32,7
 232 013e 00C0      		rjmp .L21
 233               	.LM45:
 234 0140 8091 0000 		lds r24,ch2nextnote
 235 0144 382E      		mov r3,r24
 236               	.LM46:
 237 0146 8F98      		cbi 49-32,7
 238               	.LM47:
GAS LISTING /var/folders/co/coknbUWaExmsbK3adiW3-++++TI/-Tmp-//cc58MKou.s 			page 5


 239 0148 8A9A      		sbi 49-32,2
 240               	.L21:
 241               	.LM48:
 242 014a 8899      		sbic 49-32,0
 243 014c 4424      		clr r4
 244               	.L22:
 245               	.LM49:
 246 014e 8A99      		sbic 49-32,2
 247 0150 5524      		clr r5
 248               	.L23:
 249               	.LM50:
 250 0152 8899      		sbic 49-32,0
 251 0154 00C0      		rjmp .L24
 252 0156 8A9B      		sbis 49-32,2
 253 0158 00C0      		rjmp .L25
 254               	.L24:
 255               	.LM51:
 256 015a 8091 0000 		lds r24,masterpinmask
 257 015e 0F2E      		mov __tmp_reg__,r31
 258 0160 FDEC      		ldi r31,lo8(-51)
 259 0162 8F2E      		mov r8,r31
 260 0164 F02D      		mov r31,__tmp_reg__
 261 0166 882A      		or r8,r24
 262 0168 00C0      		rjmp .L15
 263               	.L25:
 264               	.LM52:
 265 016a 8DEC      		ldi r24,lo8(-51)
 266 016c 882E      		mov r8,r24
 267               	.L15:
 268               	.LM53:
 269 016e 889B      		sbis 49-32,0
 270 0170 00C0      		rjmp .L26
 271               	/* #APP */
 272               	 ;  171 "firefly.c" 1
 273 0172 062C      		mov     __tmp_reg__, r6
 274 0174 27FA      		bst     r2, 7
 275 0176 420C      		add     r4, r2
 276 0178 03F0      		brvs    von_314
 277 017a 06F0      		brts    turnon_314
 278 017c 00C0      		rjmp    turnoff_314
 279               	von_314:
 280 017e 06F0      		brts    turnoff_314
 281               	turnon_314:
 282 0180 0094      		com     __tmp_reg__
 283 0182 8020      		and     r8, __tmp_reg__
 284 0184 00C0      	rjmp    done_314
 285               	turnoff_314:
 286 0186 8028      		or      r8, __tmp_reg__
 287               		done_314:
 288               		
 289               	 ;  0 "" 2
 290               	/* #NOAPP */
 291               	.L26:
 292               	.LM54:
 293 0188 8A9B      		sbis 49-32,2
 294 018a 00C0      		rjmp .L27
 295               	/* #APP */
GAS LISTING /var/folders/co/coknbUWaExmsbK3adiW3-++++TI/-Tmp-//cc58MKou.s 			page 6


 296               	 ;  172 "firefly.c" 1
 297 018c 072C      		mov     __tmp_reg__, r7
 298 018e 37FA      		bst     r3, 7
 299 0190 530C      		add     r5, r3
 300 0192 03F0      		brvs    von_322
 301 0194 06F0      		brts    turnon_322
 302 0196 00C0      		rjmp    turnoff_322
 303               	von_322:
 304 0198 06F0      		brts    turnoff_322
 305               	turnon_322:
 306 019a 0094      		com     __tmp_reg__
 307 019c 8020      		and     r8, __tmp_reg__
 308 019e 00C0      	rjmp    done_322
 309               	turnoff_322:
 310 01a0 8028      		or      r8, __tmp_reg__
 311               		done_322:
 312               		
 313               	 ;  0 "" 2
 314               	/* #NOAPP */
 315               	.L27:
 316               	/* epilogue start */
 317               	.LM55:
 318 01a2 8F91      		pop r24
 319 01a4 0F90      		pop r0
 320 01a6 0FBE      		out __SREG__,r0
 321 01a8 0F90      		pop r0
 322 01aa 1F90      		pop __zero_reg__
 323 01ac 1895      		reti
 324               	.LFE3:
 326               	.global	showbootup
 328               	showbootup:
 329               	.LFB5:
 330               	.LM56:
 331 01ae 0F93      		push r16
 332 01b0 1F93      		push r17
 333 01b2 CF93      		push r28
 334 01b4 DF93      		push r29
 335               	/* prologue: function */
 336               	/* frame size = 0 */
 337               	.LM57:
 338 01b6 4091 0000 		lds r20,bootsongs
 339 01ba 5091 0000 		lds r21,(bootsongs)+1
 340               	.LVL2:
 341               	.LM58:
 342               	/* #APP */
 343               	 ;  236 "firefly.c" 1
 344 01be F894      		cli
 345               	 ;  0 "" 2
 346               	.LM59:
 347               	/* #NOAPP */
 348 01c0 82E0      		ldi r24,lo8(2)
 349 01c2 8093 0000 		sts ch1restcount,r24
 350               	.LM60:
 351 01c6 899A      		sbi 49-32,1
 352               	.LM61:
 353               	/* #APP */
 354               	 ;  239 "firefly.c" 1
GAS LISTING /var/folders/co/coknbUWaExmsbK3adiW3-++++TI/-Tmp-//cc58MKou.s 			page 7


 355 01c8 7894      		sei
 356               	 ;  0 "" 2
 357               	.LM62:
 358               	/* #NOAPP */
 359 01ca FA01      		movw r30,r20
 360 01cc 6081      		ld r22,Z
 361 01ce 7181      		ldd r23,Z+1
 362 01d0 C0E0      		ldi r28,lo8(masterpins.1520)
 363 01d2 D0E0      		ldi r29,hi8(masterpins.1520)
 364               	.LVL3:
 365               	.L34:
 366               	.LM63:
 367 01d4 8881      		ld r24,Y
 368 01d6 8093 0000 		sts masterpinmask,r24
 369 01da A0E0      		ldi r26,lo8(ch1pins.1521)
 370 01dc B0E0      		ldi r27,hi8(ch1pins.1521)
 371               	.LVL4:
 372               	.L33:
 373               	.LM64:
 374 01de 9C91      		ld r25,X
 375 01e0 20E0      		ldi r18,lo8(0)
 376 01e2 30E0      		ldi r19,hi8(0)
 377 01e4 00C0      		rjmp .L29
 378               	.L32:
 379               	.LBB17:
 380               	.LM65:
 381 01e6 FA01      		movw r30,r20
 382 01e8 0281      		ldd r16,Z+2
 383 01ea 1381      		ldd r17,Z+3
 384 01ec 020F      		add r16,r18
 385 01ee 131F      		adc r17,r19
 386 01f0 F801      		movw r30,r16
 387               	/* #APP */
 388               	 ;  248 "firefly.c" 1
 389 01f2 8491      		lpm r24, Z
 390               		
 391               	 ;  0 "" 2
 392               	/* #NOAPP */
 393               	.LBE17:
 394 01f4 8093 0000 		sts ch1nextnote,r24
 395               	.LM66:
 396 01f8 8E9A      		sbi 49-32,6
 397 01fa 00C0      		rjmp .L30
 398               	.L31:
 399               	.LM67:
 400 01fc 81B5      		in r24,65-32
 401               	.LVL5:
 402 01fe 8064      		ori r24,lo8(64)
 403 0200 81BD      		out 65-32,r24
 404               	.LM68:
 405 0202 85B7      		in r24,85-32
 406 0204 877E      		andi r24,lo8(-25)
 407 0206 85BF      		out 85-32,r24
 408               	.LM69:
 409 0208 85B7      		in r24,85-32
 410 020a 8062      		ori r24,lo8(32)
 411 020c 85BF      		out 85-32,r24
GAS LISTING /var/folders/co/coknbUWaExmsbK3adiW3-++++TI/-Tmp-//cc58MKou.s 			page 8


 412               	/* #APP */
 413               	 ;  254 "firefly.c" 1
 414 020e 8895      		sleep
 415               		
 416               	 ;  0 "" 2
 417               	/* #NOAPP */
 418 0210 85B7      		in r24,85-32
 419 0212 8F7D      		andi r24,lo8(-33)
 420 0214 85BF      		out 85-32,r24
 421               	.LVL6:
 422               	.L30:
 423               	.LM70:
 424 0216 8E99      		sbic 49-32,6
 425 0218 00C0      		rjmp .L31
 426               	.LM71:
 427 021a 2E5F      		subi r18,lo8(-(2))
 428 021c 3F4F      		sbci r19,hi8(-(2))
 429               	.L29:
 430 021e 2617      		cp r18,r22
 431 0220 3707      		cpc r19,r23
 432 0222 00F0      		brlo .L32
 433 0224 1196      		adiw r26,1
 434               	.LM72:
 435 0226 F0E0      		ldi r31,hi8(ch1pins.1521+3)
 436 0228 A030      		cpi r26,lo8(ch1pins.1521+3)
 437 022a BF07      		cpc r27,r31
 438 022c 01F4      		brne .L33
 439 022e 2196      		adiw r28,1
 440               	.LM73:
 441 0230 80E0      		ldi r24,hi8(masterpins.1520+2)
 442 0232 C030      		cpi r28,lo8(masterpins.1520+2)
 443 0234 D807      		cpc r29,r24
 444               	.LVL7:
 445 0236 01F4      		brne .L34
 446 0238 692E      		mov r6,r25
 447               	.LM74:
 448               	/* #APP */
 449               	 ;  260 "firefly.c" 1
 450 023a F894      		cli
 451               	 ;  0 "" 2
 452               	.LM75:
 453               	/* #NOAPP */
 454 023c 81E0      		ldi r24,lo8(1)
 455 023e 8093 0000 		sts ch1restcount,r24
 456               	.LM76:
 457               	/* #APP */
 458               	 ;  262 "firefly.c" 1
 459 0242 7894      		sei
 460               	 ;  0 "" 2
 461               	/* #NOAPP */
 462 0244 00C0      		rjmp .L35
 463               	.L36:
 464               	.LM77:
 465 0246 81B5      		in r24,65-32
 466 0248 8064      		ori r24,lo8(64)
 467 024a 81BD      		out 65-32,r24
 468               	.LM78:
GAS LISTING /var/folders/co/coknbUWaExmsbK3adiW3-++++TI/-Tmp-//cc58MKou.s 			page 9


 469 024c 85B7      		in r24,85-32
 470 024e 877E      		andi r24,lo8(-25)
 471 0250 85BF      		out 85-32,r24
 472               	.LM79:
 473 0252 85B7      		in r24,85-32
 474 0254 8062      		ori r24,lo8(32)
 475 0256 85BF      		out 85-32,r24
 476               	/* #APP */
 477               	 ;  267 "firefly.c" 1
 478 0258 8895      		sleep
 479               		
 480               	 ;  0 "" 2
 481               	/* #NOAPP */
 482 025a 85B7      		in r24,85-32
 483 025c 8F7D      		andi r24,lo8(-33)
 484 025e 85BF      		out 85-32,r24
 485               	.L35:
 486               	.LM80:
 487 0260 8899      		sbic 49-32,0
 488 0262 00C0      		rjmp .L36
 489               	/* epilogue start */
 490               	.LM81:
 491 0264 DF91      		pop r29
 492 0266 CF91      		pop r28
 493 0268 1F91      		pop r17
 494 026a 0F91      		pop r16
 495 026c 0895      		ret
 496               	.LFE5:
 498               	.global	randbits
 500               	randbits:
 501               	.LFB10:
 502               	.LM82:
 503               	.LVL8:
 504               	/* prologue: function */
 505               	/* frame size = 0 */
 506 026e E82F      		mov r30,r24
 507               	.LM83:
 508 0270 8091 0000 		lds r24,lfsr.1632
 509 0274 9091 0000 		lds r25,(lfsr.1632)+1
 510               	.LVL9:
 511 0278 0097      		sbiw r24,0
 512 027a 01F4      		brne .L41
 513               	.LM84:
 514 027c 9DEC      		ldi r25,lo8(-51)
 515 027e 82E3      		ldi r24,lo8(50)
 516               	.L46:
 517 0280 98BB      		out 56-32,r25
 518 0282 88BB      		out 56-32,r24
 519 0284 00C0      		rjmp .L46
 520               	.L41:
 521 0286 9C01      		movw r18,r24
 522 0288 220F      		lsl r18
 523 028a 331F      		rol r19
 524               	.LM85:
 525 028c 97FF      		sbrs r25,7
 526 028e 00C0      		rjmp .L47
 527               	.L43:
GAS LISTING /var/folders/co/coknbUWaExmsbK3adiW3-++++TI/-Tmp-//cc58MKou.s 			page 10


 528               	.LM86:
 529 0290 87E8      		ldi r24,lo8(7559)
 530 0292 9DE1      		ldi r25,hi8(7559)
 531 0294 2827      		eor r18,r24
 532 0296 3927      		eor r19,r25
 533               	.L47:
 534 0298 3093 0000 		sts (lfsr.1632)+1,r19
 535 029c 2093 0000 		sts lfsr.1632,r18
 536               	.LBB18:
 537               	.LM87:
 538 02a0 F0E0      		ldi r31,lo8(0)
 539               	.LVL10:
 540 02a2 E050      		subi r30,lo8(-(bitmasks))
 541 02a4 F040      		sbci r31,hi8(-(bitmasks))
 542               	.LVL11:
 543               	/* #APP */
 544               	 ;  356 "firefly.c" 1
 545 02a6 E491      		lpm r30, Z
 546               		
 547               	 ;  0 "" 2
 548               	.LVL12:
 549               	/* #NOAPP */
 550 02a8 8091 0000 		lds r24,lfsr.1632
 551               	.LBE18:
 552               	.LM88:
 553 02ac 8E23      		and r24,r30
 554               	/* epilogue start */
 555 02ae 0895      		ret
 556               	.LFE10:
 558               	.global	pickmaster
 560               	pickmaster:
 561               	.LFB9:
 562               	.LM89:
 563               	/* prologue: function */
 564               	/* frame size = 0 */
 565               	.LM90:
 566 02b0 83E0      		ldi r24,lo8(3)
 567 02b2 00D0      		rcall randbits
 568 02b4 9091 0000 		lds r25,ticker.1619
 569 02b8 8823      		tst r24
 570 02ba 01F4      		brne .L49
 571               	.LM91:
 572 02bc 90FF      		sbrs r25,0
 573 02be 00C0      		rjmp .L51
 574 02c0 00C0      		rjmp .L50
 575               	.L49:
 576               	.LM92:
 577 02c2 892F      		mov r24,r25
 578 02c4 8F5F      		subi r24,lo8(-(1))
 579 02c6 8093 0000 		sts ticker.1619,r24
 580 02ca 80FD      		sbrc r24,0
 581 02cc 00C0      		rjmp .L50
 582               	.L51:
 583 02ce 82E0      		ldi r24,lo8(2)
 584 02d0 0895      		ret
 585               	.L50:
 586 02d2 80E1      		ldi r24,lo8(16)
GAS LISTING /var/folders/co/coknbUWaExmsbK3adiW3-++++TI/-Tmp-//cc58MKou.s 			page 11


 587               	.LM93:
 588 02d4 0895      		ret
 589               	.LFE9:
 591               	.global	pickapin
 593               	pickapin:
 594               	.LFB8:
 595               	.LM94:
 596               	.LVL13:
 597 02d6 1F93      		push r17
 598               	/* prologue: function */
 599               	/* frame size = 0 */
 600 02d8 182F      		mov r17,r24
 601               	.LM95:
 602 02da 88E0      		ldi r24,lo8(8)
 603               	.LVL14:
 604 02dc 00D0      		rcall randbits
 605               	.LM96:
 606 02de 90E0      		ldi r25,lo8(0)
 607               	.LM97:
 608 02e0 9C01      		movw r18,r24
 609 02e2 220F      		lsl r18
 610 02e4 331F      		rol r19
 611 02e6 280F      		add r18,r24
 612 02e8 391F      		adc r19,r25
 613 02ea 3130      		cpi r19,lo8(1)
 614 02ec 01F0      		breq .L57
 615 02ee 3130      		cpi r19,lo8(1)
 616 02f0 00F0      		brlo .L56
 617 02f2 3230      		cpi r19,lo8(2)
 618 02f4 01F4      		brne .L55
 619 02f6 00C0      		rjmp .L63
 620               	.L56:
 621               	.LM98:
 622 02f8 1830      		cpi r17,lo8(8)
 623 02fa 01F4      		brne .L55
 624 02fc 00C0      		rjmp .L59
 625               	.L57:
 626               	.LM99:
 627 02fe 1430      		cpi r17,lo8(4)
 628 0300 01F4      		brne .L59
 629 0302 00C0      		rjmp .L60
 630               	.L63:
 631               	.LM100:
 632 0304 1130      		cpi r17,lo8(1)
 633 0306 01F4      		brne .L60
 634               	.L55:
 635 0308 88E0      		ldi r24,lo8(8)
 636               	.LVL15:
 637 030a 00C0      		rjmp .L61
 638               	.LVL16:
 639               	.L59:
 640 030c 84E0      		ldi r24,lo8(4)
 641               	.LVL17:
 642 030e 00C0      		rjmp .L61
 643               	.LVL18:
 644               	.L60:
 645 0310 81E0      		ldi r24,lo8(1)
GAS LISTING /var/folders/co/coknbUWaExmsbK3adiW3-++++TI/-Tmp-//cc58MKou.s 			page 12


 646               	.LVL19:
 647               	.L61:
 648               	.LVL20:
 649               	/* epilogue start */
 650               	.LM101:
 651 0312 1F91      		pop r17
 652               	.LVL21:
 653 0314 0895      		ret
 654               	.LFE8:
 656               	.global	randscaleval
 658               	randscaleval:
 659               	.LFB7:
 660               	.LM102:
 661 0316 EF92      		push r14
 662 0318 FF92      		push r15
 663 031a 0F93      		push r16
 664 031c 1F93      		push r17
 665               	/* prologue: function */
 666               	/* frame size = 0 */
 667               	.LM103:
 668 031e 86E0      		ldi r24,lo8(6)
 669 0320 00D0      		rcall randbits
 670 0322 182F      		mov r17,r24
 671 0324 85E0      		ldi r24,lo8(5)
 672 0326 00D0      		rcall randbits
 673 0328 E82E      		mov r14,r24
 674 032a 84E0      		ldi r24,lo8(4)
 675 032c 00D0      		rcall randbits
 676 032e F82E      		mov r15,r24
 677 0330 83E0      		ldi r24,lo8(3)
 678 0332 00D0      		rcall randbits
 679 0334 082F      		mov r16,r24
 680 0336 82E0      		ldi r24,lo8(2)
 681 0338 00D0      		rcall randbits
 682 033a 1E0D      		add r17,r14
 683 033c 165C      		subi r17,lo8(-(58))
 684 033e 1F0D      		add r17,r15
 685 0340 100F      		add r17,r16
 686               	.LM104:
 687 0342 810F      		add r24,r17
 688               	/* epilogue start */
 689 0344 1F91      		pop r17
 690 0346 0F91      		pop r16
 691 0348 FF90      		pop r15
 692 034a EF90      		pop r14
 693 034c 0895      		ret
 694               	.LFE7:
 696               	.global	randwaitval
 698               	randwaitval:
 699               	.LFB6:
 700               	.LM105:
 701 034e CF92      		push r12
 702 0350 DF92      		push r13
 703 0352 EF92      		push r14
 704 0354 FF92      		push r15
 705 0356 0F93      		push r16
 706 0358 1F93      		push r17
GAS LISTING /var/folders/co/coknbUWaExmsbK3adiW3-++++TI/-Tmp-//cc58MKou.s 			page 13


 707               	/* prologue: function */
 708               	/* frame size = 0 */
 709               	.LM106:
 710 035a C090 0000 		lds r12,mood
 711 035e 84E0      		ldi r24,lo8(4)
 712 0360 00D0      		rcall randbits
 713 0362 182F      		mov r17,r24
 714 0364 84E0      		ldi r24,lo8(4)
 715 0366 00D0      		rcall randbits
 716 0368 D82E      		mov r13,r24
 717 036a 83E0      		ldi r24,lo8(3)
 718 036c 00D0      		rcall randbits
 719 036e E82E      		mov r14,r24
 720 0370 82E0      		ldi r24,lo8(2)
 721 0372 00D0      		rcall randbits
 722 0374 F82E      		mov r15,r24
 723 0376 82E0      		ldi r24,lo8(2)
 724 0378 00D0      		rcall randbits
 725 037a 082F      		mov r16,r24
 726 037c 83E0      		ldi r24,lo8(3)
 727 037e 00D0      		rcall randbits
 728 0380 1D0D      		add r17,r13
 729 0382 1C0D      		add r17,r12
 730 0384 1E0D      		add r17,r14
 731 0386 1F0D      		add r17,r15
 732 0388 100F      		add r17,r16
 733               	.LM107:
 734 038a 181B      		sub r17,r24
 735 038c 812F      		mov r24,r17
 736               	/* epilogue start */
 737 038e 1F91      		pop r17
 738 0390 0F91      		pop r16
 739 0392 FF90      		pop r15
 740 0394 EF90      		pop r14
 741 0396 DF90      		pop r13
 742 0398 CF90      		pop r12
 743 039a 0895      		ret
 744               	.LFE6:
 746               	.global	pickasong
 748               	pickasong:
 749               	.LFB11:
 750               	.LM108:
 751               	/* prologue: function */
 752               	/* frame size = 0 */
 753               	.LM109:
 754 039c 88E0      		ldi r24,lo8(8)
 755 039e 00D0      		rcall randbits
 756 03a0 E82F      		mov r30,r24
 757 03a2 F0E0      		ldi r31,lo8(0)
 758 03a4 74E0      		ldi r23,4
 759 03a6 F695      	1:	lsr r31
 760 03a8 E795      		ror r30
 761 03aa 7A95      		dec r23
 762 03ac 01F4      		brne 1b
 763 03ae EE0F      		lsl r30
 764 03b0 FF1F      		rol r31
 765 03b2 E050      		subi r30,lo8(-(songs))
GAS LISTING /var/folders/co/coknbUWaExmsbK3adiW3-++++TI/-Tmp-//cc58MKou.s 			page 14


 766 03b4 F040      		sbci r31,hi8(-(songs))
 767               	.LM110:
 768 03b6 8081      		ld r24,Z
 769 03b8 9181      		ldd r25,Z+1
 770               	/* epilogue start */
 771 03ba 0895      		ret
 772               	.LFE11:
 774               	.global	lighted_fireflies
 776               	lighted_fireflies:
 777               	.LFB15:
 778               	.LM111:
 779 03bc EF92      		push r14
 780 03be FF92      		push r15
 781 03c0 0F93      		push r16
 782 03c2 1F93      		push r17
 783 03c4 CF93      		push r28
 784 03c6 DF93      		push r29
 785               	/* prologue: function */
 786               	/* frame size = 0 */
 787               	.LM112:
 788 03c8 1091 0000 		lds r17,temp.1721
 789 03cc C091 0000 		lds r28,ch1noteptr.1719
 790 03d0 D091 0000 		lds r29,(ch1noteptr.1719)+1
 791               	.LM113:
 792 03d4 E8E5      		ldi r30,lo8(600)
 793 03d6 EE2E      		mov r14,r30
 794 03d8 E2E0      		ldi r30,hi8(600)
 795 03da FE2E      		mov r15,r30
 796 03dc 00C0      		rjmp .L85
 797               	.LVL22:
 798               	.L83:
 799               	.LM114:
 800 03de 8899      		sbic 49-32,0
 801 03e0 00C0      		rjmp .L72
 802 03e2 8A9B      		sbis 49-32,2
 803 03e4 00C0      		rjmp .L73
 804               	.L72:
 805               	.LM115:
 806 03e6 889B      		sbis 49-32,0
 807 03e8 00C0      		rjmp .L74
 808 03ea 8E99      		sbic 49-32,6
 809 03ec 00C0      		rjmp .L74
 810               	.LM116:
 811 03ee E091 0000 		lds r30,ch1song.1717
 812 03f2 F091 0000 		lds r31,(ch1song.1717)+1
 813               	.LVL23:
 814 03f6 8081      		ld r24,Z
 815 03f8 9181      		ldd r25,Z+1
 816 03fa C817      		cp r28,r24
 817 03fc D907      		cpc r29,r25
 818 03fe 01F0      		breq .L74
 819               	.LBB19:
 820               	.LM117:
 821 0400 0280      		ldd __tmp_reg__,Z+2
 822 0402 F381      		ldd r31,Z+3
 823 0404 E02D      		mov r30,__tmp_reg__
 824 0406 EC0F      		add r30,r28
GAS LISTING /var/folders/co/coknbUWaExmsbK3adiW3-++++TI/-Tmp-//cc58MKou.s 			page 15


 825 0408 FD1F      		adc r31,r29
 826 040a 2196      		adiw r28,1
 827               	/* #APP */
 828               	 ;  472 "firefly.c" 1
 829 040c E491      		lpm r30, Z
 830               		
 831               	 ;  0 "" 2
 832               	.LVL24:
 833               	/* #NOAPP */
 834               	.LBE19:
 835               	.LM118:
 836 040e 6091 0000 		lds r22,ch1scale
 837 0412 8E2F      		mov r24,r30
 838 0414 90E0      		ldi r25,lo8(0)
 839 0416 70E0      		ldi r23,lo8(0)
 840 0418 00D0      		rcall __mulhi3
 841 041a 192F      		mov r17,r25
 842               	.LM119:
 843               	/* #APP */
 844               	 ;  475 "firefly.c" 1
 845 041c F894      		cli
 846               	 ;  0 "" 2
 847               	.LM120:
 848               	/* #NOAPP */
 849 041e 9093 0000 		sts ch1nextnote,r25
 850               	.LM121:
 851 0422 8E9A      		sbi 49-32,6
 852               	.LM122:
 853               	/* #APP */
 854               	 ;  478 "firefly.c" 1
 855 0424 7894      		sei
 856               	 ;  0 "" 2
 857               	/* #NOAPP */
 858 0426 00C0      		rjmp .L85
 859               	.LVL25:
 860               	.L74:
 861               	.LM123:
 862 0428 8A9B      		sbis 49-32,2
 863 042a 00C0      		rjmp .L75
 864 042c 8F99      		sbic 49-32,7
 865 042e 00C0      		rjmp .L75
 866               	.LM124:
 867 0430 2091 0000 		lds r18,ch2noteptr.1720
 868 0434 3091 0000 		lds r19,(ch2noteptr.1720)+1
 869 0438 E091 0000 		lds r30,ch2song.1718
 870 043c F091 0000 		lds r31,(ch2song.1718)+1
 871               	.LVL26:
 872 0440 8081      		ld r24,Z
 873 0442 9181      		ldd r25,Z+1
 874 0444 2817      		cp r18,r24
 875 0446 3907      		cpc r19,r25
 876 0448 01F0      		breq .L75
 877               	.LBB20:
 878               	.LM125:
 879 044a 0280      		ldd __tmp_reg__,Z+2
 880 044c F381      		ldd r31,Z+3
 881 044e E02D      		mov r30,__tmp_reg__
GAS LISTING /var/folders/co/coknbUWaExmsbK3adiW3-++++TI/-Tmp-//cc58MKou.s 			page 16


 882 0450 E20F      		add r30,r18
 883 0452 F31F      		adc r31,r19
 884 0454 2F5F      		subi r18,lo8(-(1))
 885 0456 3F4F      		sbci r19,hi8(-(1))
 886 0458 3093 0000 		sts (ch2noteptr.1720)+1,r19
 887 045c 2093 0000 		sts ch2noteptr.1720,r18
 888               	/* #APP */
 889               	 ;  486 "firefly.c" 1
 890 0460 E491      		lpm r30, Z
 891               		
 892               	 ;  0 "" 2
 893               	.LVL27:
 894               	/* #NOAPP */
 895               	.LBE20:
 896               	.LM126:
 897 0462 6091 0000 		lds r22,ch2scale
 898 0466 8E2F      		mov r24,r30
 899 0468 90E0      		ldi r25,lo8(0)
 900 046a 70E0      		ldi r23,lo8(0)
 901 046c 00D0      		rcall __mulhi3
 902 046e 192F      		mov r17,r25
 903               	.LM127:
 904               	/* #APP */
 905               	 ;  489 "firefly.c" 1
 906 0470 F894      		cli
 907               	 ;  0 "" 2
 908               	.LM128:
 909               	/* #NOAPP */
 910 0472 9093 0000 		sts ch2nextnote,r25
 911               	.LM129:
 912 0476 8F9A      		sbi 49-32,7
 913               	.LM130:
 914               	/* #APP */
 915               	 ;  492 "firefly.c" 1
 916 0478 7894      		sei
 917               	 ;  0 "" 2
 918               	/* #NOAPP */
 919 047a 00C0      		rjmp .L85
 920               	.LVL28:
 921               	.L75:
 922               	.LM131:
 923 047c 889B      		sbis 49-32,0
 924 047e 00C0      		rjmp .L76
 925 0480 8091 0000 		lds r24,ch1restcount
 926 0484 8823      		tst r24
 927 0486 01F4      		brne .L76
 928               	.LM132:
 929 0488 00D0      		rcall randwaitval
 930               	.LVL29:
 931 048a 182F      		mov r17,r24
 932               	.LM133:
 933               	/* #APP */
 934               	 ;  503 "firefly.c" 1
 935 048c F894      		cli
 936               	 ;  0 "" 2
 937               	.LM134:
 938               	/* #NOAPP */
GAS LISTING /var/folders/co/coknbUWaExmsbK3adiW3-++++TI/-Tmp-//cc58MKou.s 			page 17


 939 048e 8093 0000 		sts ch1restcount,r24
 940               	.LM135:
 941               	/* #APP */
 942               	 ;  505 "firefly.c" 1
 943 0492 7894      		sei
 944               	 ;  0 "" 2
 945               	/* #NOAPP */
 946 0494 00C0      		rjmp .L85
 947               	.LVL30:
 948               	.L76:
 949               	.LM136:
 950 0496 8A9B      		sbis 49-32,2
 951 0498 00C0      		rjmp .L73
 952 049a 8091 0000 		lds r24,ch2restcount
 953 049e 8823      		tst r24
 954 04a0 01F4      		brne .L73
 955               	.LM137:
 956 04a2 00D0      		rcall randwaitval
 957               	.LVL31:
 958 04a4 182F      		mov r17,r24
 959               	.LM138:
 960               	/* #APP */
 961               	 ;  511 "firefly.c" 1
 962 04a6 F894      		cli
 963               	 ;  0 "" 2
 964               	.LM139:
 965               	/* #NOAPP */
 966 04a8 8093 0000 		sts ch2restcount,r24
 967               	.LM140:
 968               	/* #APP */
 969               	 ;  513 "firefly.c" 1
 970 04ac 7894      		sei
 971               	 ;  0 "" 2
 972               	/* #NOAPP */
 973 04ae 00C0      		rjmp .L85
 974               	.LVL32:
 975               	.L73:
 976               	.LM141:
 977 04b0 8899      		sbic 49-32,0
 978 04b2 00C0      		rjmp .L77
 979 04b4 8999      		sbic 49-32,1
 980 04b6 00C0      		rjmp .L77
 981 04b8 8E99      		sbic 49-32,6
 982 04ba 00C0      		rjmp .L77
 983               	.LM142:
 984 04bc 00D0      		rcall pickasong
 985               	.LVL33:
 986 04be 9093 0000 		sts (ch1song.1717)+1,r25
 987 04c2 8093 0000 		sts ch1song.1717,r24
 988               	.LM143:
 989 04c6 872D      		mov r24,r7
 990 04c8 00D0      		rcall pickapin
 991 04ca 682E      		mov r6,r24
 992               	.LM144:
 993 04cc 00D0      		rcall randscaleval
 994 04ce 8093 0000 		sts ch1scale,r24
 995               	.LBB21:
GAS LISTING /var/folders/co/coknbUWaExmsbK3adiW3-++++TI/-Tmp-//cc58MKou.s 			page 18


 996               	.LM145:
 997 04d2 E091 0000 		lds r30,ch1song.1717
 998 04d6 F091 0000 		lds r31,(ch1song.1717)+1
 999 04da 0280      		ldd __tmp_reg__,Z+2
 1000 04dc F381      		ldd r31,Z+3
 1001 04de E02D      		mov r30,__tmp_reg__
 1002               	/* #APP */
 1003               	 ;  530 "firefly.c" 1
 1004 04e0 E491      		lpm r30, Z
 1005               		
 1006               	 ;  0 "" 2
 1007               	.LVL34:
 1008               	/* #NOAPP */
 1009               	.LBE21:
 1010               	.LM146:
 1011 04e2 6091 0000 		lds r22,ch1scale
 1012 04e6 8E2F      		mov r24,r30
 1013 04e8 90E0      		ldi r25,lo8(0)
 1014 04ea 70E0      		ldi r23,lo8(0)
 1015 04ec 00D0      		rcall __mulhi3
 1016 04ee 192F      		mov r17,r25
 1017 04f0 092F      		mov r16,r25
 1018               	.LM147:
 1019 04f2 8B9B      		sbis 49-32,3
 1020 04f4 00C0      		rjmp .L78
 1021               	.LM148:
 1022 04f6 00D0      		rcall pickmaster
 1023               	.LVL35:
 1024 04f8 8093 0000 		sts masterpinmask,r24
 1025               	.LVL36:
 1026               	.L78:
 1027               	.LM149:
 1028               	/* #APP */
 1029               	 ;  538 "firefly.c" 1
 1030 04fc F894      		cli
 1031               	 ;  0 "" 2
 1032               	.LM150:
 1033               	/* #NOAPP */
 1034 04fe 0093 0000 		sts ch1nextnote,r16
 1035               	.LM151:
 1036 0502 8E9A      		sbi 49-32,6
 1037               	.LM152:
 1038               	/* #APP */
 1039               	 ;  541 "firefly.c" 1
 1040 0504 7894      		sei
 1041               	 ;  0 "" 2
 1042               	/* #NOAPP */
 1043 0506 C1E0      		ldi r28,lo8(1)
 1044 0508 D0E0      		ldi r29,hi8(1)
 1045 050a 00C0      		rjmp .L85
 1046               	.LVL37:
 1047               	.L77:
 1048               	.LM153:
 1049 050c 8A99      		sbic 49-32,2
 1050 050e 00C0      		rjmp .L79
 1051 0510 8B99      		sbic 49-32,3
 1052 0512 00C0      		rjmp .L79
GAS LISTING /var/folders/co/coknbUWaExmsbK3adiW3-++++TI/-Tmp-//cc58MKou.s 			page 19


 1053 0514 8F99      		sbic 49-32,7
 1054 0516 00C0      		rjmp .L79
 1055               	.LM154:
 1056 0518 00D0      		rcall pickasong
 1057               	.LVL38:
 1058 051a 9093 0000 		sts (ch2song.1718)+1,r25
 1059 051e 8093 0000 		sts ch2song.1718,r24
 1060               	.LM155:
 1061 0522 1092 0000 		sts (ch2noteptr.1720)+1,__zero_reg__
 1062 0526 1092 0000 		sts ch2noteptr.1720,__zero_reg__
 1063               	.LM156:
 1064 052a 862D      		mov r24,r6
 1065 052c 00D0      		rcall pickapin
 1066 052e 782E      		mov r7,r24
 1067               	.LM157:
 1068 0530 00D0      		rcall randscaleval
 1069 0532 8093 0000 		sts ch2scale,r24
 1070               	.LBB22:
 1071               	.LM158:
 1072 0536 8091 0000 		lds r24,ch2noteptr.1720
 1073 053a 9091 0000 		lds r25,(ch2noteptr.1720)+1
 1074 053e E091 0000 		lds r30,ch2song.1718
 1075 0542 F091 0000 		lds r31,(ch2song.1718)+1
 1076 0546 0280      		ldd __tmp_reg__,Z+2
 1077 0548 F381      		ldd r31,Z+3
 1078 054a E02D      		mov r30,__tmp_reg__
 1079 054c E80F      		add r30,r24
 1080 054e F91F      		adc r31,r25
 1081 0550 0196      		adiw r24,1
 1082 0552 9093 0000 		sts (ch2noteptr.1720)+1,r25
 1083 0556 8093 0000 		sts ch2noteptr.1720,r24
 1084               	/* #APP */
 1085               	 ;  556 "firefly.c" 1
 1086 055a E491      		lpm r30, Z
 1087               		
 1088               	 ;  0 "" 2
 1089               	.LVL39:
 1090               	/* #NOAPP */
 1091               	.LBE22:
 1092               	.LM159:
 1093 055c 6091 0000 		lds r22,ch2scale
 1094 0560 8E2F      		mov r24,r30
 1095 0562 90E0      		ldi r25,lo8(0)
 1096 0564 70E0      		ldi r23,lo8(0)
 1097 0566 00D0      		rcall __mulhi3
 1098 0568 192F      		mov r17,r25
 1099 056a 092F      		mov r16,r25
 1100               	.LM160:
 1101 056c 899B      		sbis 49-32,1
 1102 056e 00C0      		rjmp .L80
 1103               	.LM161:
 1104 0570 00D0      		rcall pickmaster
 1105               	.LVL40:
 1106 0572 8093 0000 		sts masterpinmask,r24
 1107               	.LVL41:
 1108               	.L80:
 1109               	.LM162:
GAS LISTING /var/folders/co/coknbUWaExmsbK3adiW3-++++TI/-Tmp-//cc58MKou.s 			page 20


 1110               	/* #APP */
 1111               	 ;  564 "firefly.c" 1
 1112 0576 F894      		cli
 1113               	 ;  0 "" 2
 1114               	.LM163:
 1115               	/* #NOAPP */
 1116 0578 0093 0000 		sts ch2nextnote,r16
 1117               	.LM164:
 1118 057c 8F9A      		sbi 49-32,7
 1119               	.LM165:
 1120               	/* #APP */
 1121               	 ;  567 "firefly.c" 1
 1122 057e 7894      		sei
 1123               	 ;  0 "" 2
 1124               	/* #NOAPP */
 1125 0580 00C0      		rjmp .L85
 1126               	.LVL42:
 1127               	.L79:
 1128               	.LM166:
 1129 0582 8C9B      		sbis 49-32,4
 1130 0584 00C0      		rjmp .L81
 1131               	.LM167:
 1132 0586 85E0      		ldi r24,lo8(5)
 1133 0588 00D0      		rcall randbits
 1134               	.LVL43:
 1135 058a 885F      		subi r24,lo8(-(8))
 1136 058c 8093 0000 		sts mood,r24
 1137               	.LM168:
 1138 0590 F092 0000 		sts (mood_count)+1,r15
 1139 0594 E092 0000 		sts mood_count,r14
 1140               	.LM169:
 1141 0598 8C98      		cbi 49-32,4
 1142 059a 00C0      		rjmp .L85
 1143               	.LVL44:
 1144               	.L81:
 1145               	.LM170:
 1146 059c 81B5      		in r24,65-32
 1147 059e 8064      		ori r24,lo8(64)
 1148 05a0 81BD      		out 65-32,r24
 1149               	.LM171:
 1150 05a2 899B      		sbis 49-32,1
 1151 05a4 00C0      		rjmp .L82
 1152 05a6 8B9B      		sbis 49-32,3
 1153 05a8 00C0      		rjmp .L82
 1154               	.LM172:
 1155 05aa 85B7      		in r24,85-32
 1156 05ac 877E      		andi r24,lo8(-25)
 1157 05ae 8061      		ori r24,lo8(16)
 1158 05b0 85BF      		out 85-32,r24
 1159               	.LM173:
 1160 05b2 85B7      		in r24,85-32
 1161 05b4 8062      		ori r24,lo8(32)
 1162 05b6 85BF      		out 85-32,r24
 1163               	/* #APP */
 1164               	 ;  591 "firefly.c" 1
 1165 05b8 8895      		sleep
 1166               		
GAS LISTING /var/folders/co/coknbUWaExmsbK3adiW3-++++TI/-Tmp-//cc58MKou.s 			page 21


 1167               	 ;  0 "" 2
 1168               	/* #NOAPP */
 1169 05ba 00C0      		rjmp .L86
 1170               	.L82:
 1171               	.LM174:
 1172 05bc 85B7      		in r24,85-32
 1173 05be 877E      		andi r24,lo8(-25)
 1174 05c0 85BF      		out 85-32,r24
 1175               	.LM175:
 1176 05c2 85B7      		in r24,85-32
 1177 05c4 8062      		ori r24,lo8(32)
 1178 05c6 85BF      		out 85-32,r24
 1179               	/* #APP */
 1180               	 ;  595 "firefly.c" 1
 1181 05c8 8895      		sleep
 1182               		
 1183               	 ;  0 "" 2
 1184               	/* #NOAPP */
 1185               	.L86:
 1186 05ca 85B7      		in r24,85-32
 1187 05cc 8F7D      		andi r24,lo8(-33)
 1188 05ce 85BF      		out 85-32,r24
 1189               	.L85:
 1190               	.LM176:
 1191 05d0 8091 0000 		lds r24,is_dark
 1192 05d4 8823      		tst r24
 1193 05d6 01F0      		breq .+2
 1194 05d8 00C0      		rjmp .L83
 1195 05da 1093 0000 		sts temp.1721,r17
 1196 05de D093 0000 		sts (ch1noteptr.1719)+1,r29
 1197 05e2 C093 0000 		sts ch1noteptr.1719,r28
 1198               	/* epilogue start */
 1199               	.LM177:
 1200 05e6 DF91      		pop r29
 1201 05e8 CF91      		pop r28
 1202 05ea 1F91      		pop r17
 1203 05ec 0F91      		pop r16
 1204 05ee FF90      		pop r15
 1205 05f0 EF90      		pop r14
 1206 05f2 0895      		ret
 1207               	.LFE15:
 1209               	.global	main
 1211               	main:
 1212               	.LFB16:
 1213               	.LM178:
 1214 05f4 0F93      		push r16
 1215 05f6 1F93      		push r17
 1216               	/* prologue: function */
 1217               	/* frame size = 0 */
 1218               	.LBB23:
 1219               	.LBB24:
 1220               	.LM179:
 1221 05f8 2DE0      		ldi r18,lo8(13)
 1222 05fa 88E1      		ldi r24,lo8(24)
 1223 05fc 90E0      		ldi r25,hi8(24)
 1224               	/* #APP */
 1225               	 ;  183 "firefly.c" 1
GAS LISTING /var/folders/co/coknbUWaExmsbK3adiW3-++++TI/-Tmp-//cc58MKou.s 			page 22


 1226 05fe 0FB6      		in __tmp_reg__,__SREG__
 1227 0600 F894      		cli
 1228 0602 A895      		wdr
 1229 0604 81BD      		out 33,r24
 1230 0606 0FBE      		out __SREG__,__tmp_reg__
 1231 0608 21BD      		out 33,r18
 1232               	 ;  0 "" 2
 1233               	.LM180:
 1234               	/* #NOAPP */
 1235 060a 81B5      		in r24,65-32
 1236 060c 8064      		ori r24,lo8(64)
 1237 060e 81BD      		out 65-32,r24
 1238               	.LM181:
 1239 0610 8FED      		ldi r24,lo8(-33)
 1240 0612 87BB      		out 55-32,r24
 1241               	.LM182:
 1242 0614 8DEC      		ldi r24,lo8(-51)
 1243 0616 88BB      		out 56-32,r24
 1244               	.LM183:
 1245 0618 80B5      		in r24,64-32
 1246 061a 8860      		ori r24,lo8(8)
 1247 061c 80BD      		out 64-32,r24
 1248               	.LM184:
 1249 061e 80B5      		in r24,64-32
 1250 0620 8260      		ori r24,lo8(2)
 1251 0622 80BD      		out 64-32,r24
 1252               	.LM185:
 1253 0624 80B5      		in r24,64-32
 1254 0626 8160      		ori r24,lo8(1)
 1255 0628 80BD      		out 64-32,r24
 1256               	.LM186:
 1257 062a 80E2      		ldi r24,lo8(32)
 1258 062c 84BB      		out 52-32,r24
 1259               	.LM187:
 1260 062e 82E0      		ldi r24,lo8(2)
 1261 0630 8ABD      		out 74-32,r24
 1262               	.LM188:
 1263 0632 83BF      		out 83-32,r24
 1264               	.LM189:
 1265 0634 89E1      		ldi r24,lo8(25)
 1266 0636 89BD      		out 73-32,r24
 1267               	.LBB25:
 1268               	.LM190:
 1269 0638 82E0      		ldi r24,lo8(2)
 1270 063a 90E0      		ldi r25,hi8(2)
 1271 063c 20E8      		ldi r18,lo8(-128)
 1272               	/* #APP */
 1273               	 ;  217 "firefly.c" 1
 1274 063e 0FB6      		in __tmp_reg__,__SREG__
 1275 0640 F894      		cli
 1276 0642 26BD      		out 38, r18
 1277 0644 86BD      		out 38, r24
 1278 0646 0FBE      		out __SREG__, __tmp_reg__
 1279               	 ;  0 "" 2
 1280               	/* #NOAPP */
 1281               	.LBE25:
 1282               	.LM191:
GAS LISTING /var/folders/co/coknbUWaExmsbK3adiW3-++++TI/-Tmp-//cc58MKou.s 			page 23


 1283 0648 80E1      		ldi r24,lo8(16)
 1284 064a 89BF      		out 89-32,r24
 1285               	.LM192:
 1286 064c 81B5      		in r24,65-32
 1287 064e 8064      		ori r24,lo8(64)
 1288 0650 81BD      		out 65-32,r24
 1289               	.LBE24:
 1290               	.LBE23:
 1291               	.LM193:
 1292 0652 8824      		clr r8
 1293 0654 7724      		clr r7
 1294 0656 6624      		clr r6
 1295 0658 5524      		clr r5
 1296 065a 4424      		clr r4
 1297 065c 3324      		clr r3
 1298 065e 2224      		clr r2
 1299               	.LM194:
 1300 0660 00D0      		rcall randwaitval
 1301 0662 8093 0000 		sts ch1restcount,r24
 1302               	.LM195:
 1303 0666 00D0      		rcall randwaitval
 1304 0668 8093 0000 		sts ch2restcount,r24
 1305               	.LM196:
 1306 066c 11BA      		out 49-32,__zero_reg__
 1307               	.LM197:
 1308 066e 1092 0000 		sts waiting_for_dark,__zero_reg__
 1309               	.LM198:
 1310 0672 81E0      		ldi r24,lo8(1)
 1311 0674 8093 0000 		sts is_dark,r24
 1312               	.LM199:
 1313 0678 8093 0000 		sts force_dark,r24
 1314               	.LM200:
 1315               	/* #APP */
 1316               	 ;  619 "firefly.c" 1
 1317 067c 7894      		sei
 1318               	 ;  0 "" 2
 1319               	.LM201:
 1320               	/* #NOAPP */
 1321 067e 00D0      		rcall showbootup
 1322               	.LM202:
 1323 0680 1092 0000 		sts force_dark,__zero_reg__
 1324               	.LBB26:
 1325               	.LBB27:
 1326               	.LM203:
 1327 0684 01E0      		ldi r16,lo8(1)
 1328               	.LM204:
 1329 0686 10E1      		ldi r17,lo8(16)
 1330               	.L90:
 1331               	.LM205:
 1332 0688 0093 0000 		sts waiting_for_dark,r16
 1333               	.LM206:
 1334 068c 19BE      		out 89-32,__zero_reg__
 1335 068e 00C0      		rjmp .L88
 1336               	.L89:
 1337               	.LM207:
 1338 0690 81B5      		in r24,65-32
 1339 0692 8064      		ori r24,lo8(64)
GAS LISTING /var/folders/co/coknbUWaExmsbK3adiW3-++++TI/-Tmp-//cc58MKou.s 			page 24


 1340 0694 81BD      		out 65-32,r24
 1341               	.LM208:
 1342 0696 85B7      		in r24,85-32
 1343 0698 877E      		andi r24,lo8(-25)
 1344 069a 8061      		ori r24,lo8(16)
 1345 069c 85BF      		out 85-32,r24
 1346               	.LM209:
 1347 069e 85B7      		in r24,85-32
 1348 06a0 8062      		ori r24,lo8(32)
 1349 06a2 85BF      		out 85-32,r24
 1350               	/* #APP */
 1351               	 ;  430 "firefly.c" 1
 1352 06a4 8895      		sleep
 1353               		
 1354               	 ;  0 "" 2
 1355               	/* #NOAPP */
 1356 06a6 85B7      		in r24,85-32
 1357 06a8 8F7D      		andi r24,lo8(-33)
 1358 06aa 85BF      		out 85-32,r24
 1359               	.L88:
 1360               	.LM210:
 1361 06ac 8091 0000 		lds r24,is_dark
 1362 06b0 8823      		tst r24
 1363 06b2 01F0      		breq .L89
 1364               	.LM211:
 1365 06b4 19BF      		out 89-32,r17
 1366               	.LM212:
 1367 06b6 1092 0000 		sts waiting_for_dark,__zero_reg__
 1368               	.LBE27:
 1369               	.LBE26:
 1370               	.LM213:
 1371 06ba 8824      		clr r8
 1372 06bc 7724      		clr r7
 1373 06be 6624      		clr r6
 1374 06c0 5524      		clr r5
 1375 06c2 4424      		clr r4
 1376 06c4 3324      		clr r3
 1377 06c6 2224      		clr r2
 1378               	.LM214:
 1379 06c8 11BA      		out 49-32,__zero_reg__
 1380               	.LM215:
 1381 06ca 899A      		sbi 49-32,1
 1382               	.LM216:
 1383 06cc 8B9A      		sbi 49-32,3
 1384               	.LM217:
 1385 06ce 00D0      		rcall lighted_fireflies
 1386 06d0 00C0      		rjmp .L90
 1387               	.LFE16:
 1389               	.global	bootsongnotes
 1390               		.section	.progmem.data,"a",@progbits
 1393               	bootsongnotes:
 1394 0000 00        		.byte	0
 1395 0001 04        		.byte	4
 1396 0002 09        		.byte	9
 1397 0003 10        		.byte	16
 1398 0004 18        		.byte	24
 1399 0005 21        		.byte	33
GAS LISTING /var/folders/co/coknbUWaExmsbK3adiW3-++++TI/-Tmp-//cc58MKou.s 			page 25


 1400 0006 29        		.byte	41
 1401 0007 2F        		.byte	47
 1402 0008 32        		.byte	50
 1403 0009 31        		.byte	49
 1404 000a 2C        		.byte	44
 1405 000b 23        		.byte	35
 1406 000c 1A        		.byte	26
 1407 000d 11        		.byte	17
 1408 000e 0A        		.byte	10
 1409 000f 05        		.byte	5
 1410 0010 01        		.byte	1
 1411 0011 00        		.byte	0
 1412 0012 00        		.byte	0
 1413               	.global	bootsong
 1414               		.data
 1417               	bootsong:
 1418 0000 1300      		.word	19
 1419 0002 0000      		.word	bootsongnotes
 1420               	.global	song2anotes
 1421               		.section	.progmem.data
 1424               	song2anotes:
 1425 0013 02        		.byte	2
 1426 0014 1D        		.byte	29
 1427 0015 51        		.byte	81
 1428 0016 7B        		.byte	123
 1429 0017 82        		.byte	-126
 1430 0018 68        		.byte	104
 1431 0019 3F        		.byte	63
 1432 001a 18        		.byte	24
 1433 001b 02        		.byte	2
 1434 001c 01        		.byte	1
 1435 001d 01        		.byte	1
 1436 001e 01        		.byte	1
 1437 001f 01        		.byte	1
 1438 0020 01        		.byte	1
 1439 0021 01        		.byte	1
 1440 0022 04        		.byte	4
 1441 0023 0F        		.byte	15
 1442 0024 1A        		.byte	26
 1443 0025 24        		.byte	36
 1444 0026 2E        		.byte	46
 1445 0027 37        		.byte	55
 1446 0028 42        		.byte	66
 1447 0029 4F        		.byte	79
 1448 002a 5B        		.byte	91
 1449 002b 66        		.byte	102
 1450 002c 6D        		.byte	109
 1451 002d 73        		.byte	115
 1452 002e 79        		.byte	121
 1453 002f 83        		.byte	-125
 1454 0030 8E        		.byte	-114
 1455 0031 98        		.byte	-104
 1456 0032 9B        		.byte	-101
 1457 0033 97        		.byte	-105
 1458 0034 8D        		.byte	-115
 1459 0035 85        		.byte	-123
 1460 0036 83        		.byte	-125
GAS LISTING /var/folders/co/coknbUWaExmsbK3adiW3-++++TI/-Tmp-//cc58MKou.s 			page 26


 1461 0037 87        		.byte	-121
 1462 0038 90        		.byte	-112
 1463 0039 99        		.byte	-103
 1464 003a 9E        		.byte	-98
 1465 003b 9E        		.byte	-98
 1466 003c 9A        		.byte	-102
 1467 003d 97        		.byte	-105
 1468 003e 96        		.byte	-106
 1469 003f 95        		.byte	-107
 1470 0040 94        		.byte	-108
 1471 0041 90        		.byte	-112
 1472 0042 8B        		.byte	-117
 1473 0043 88        		.byte	-120
 1474 0044 8A        		.byte	-118
 1475 0045 91        		.byte	-111
 1476 0046 9B        		.byte	-101
 1477 0047 A1        		.byte	-95
 1478 0048 A0        		.byte	-96
 1479 0049 99        		.byte	-103
 1480 004a 90        		.byte	-112
 1481 004b 8A        		.byte	-118
 1482 004c 8B        		.byte	-117
 1483 004d 91        		.byte	-111
 1484 004e 98        		.byte	-104
 1485 004f 9C        		.byte	-100
 1486 0050 9A        		.byte	-102
 1487 0051 94        		.byte	-108
 1488 0052 8D        		.byte	-115
 1489 0053 8A        		.byte	-118
 1490 0054 8C        		.byte	-116
 1491 0055 91        		.byte	-111
 1492 0056 96        		.byte	-106
 1493 0057 99        		.byte	-103
 1494 0058 99        		.byte	-103
 1495 0059 98        		.byte	-104
 1496 005a 98        		.byte	-104
 1497 005b 9A        		.byte	-102
 1498 005c 9A        		.byte	-102
 1499 005d 96        		.byte	-106
 1500 005e 8E        		.byte	-114
 1501 005f 86        		.byte	-122
 1502 0060 81        		.byte	-127
 1503 0061 84        		.byte	-124
 1504 0062 8E        		.byte	-114
 1505 0063 9C        		.byte	-100
 1506 0064 A8        		.byte	-88
 1507 0065 AA        		.byte	-86
 1508 0066 A1        		.byte	-95
 1509 0067 92        		.byte	-110
 1510 0068 83        		.byte	-125
 1511 0069 79        		.byte	121
 1512 006a 75        		.byte	117
 1513 006b 74        		.byte	116
 1514 006c 74        		.byte	116
 1515 006d 73        		.byte	115
 1516 006e 71        		.byte	113
 1517 006f 6E        		.byte	110
GAS LISTING /var/folders/co/coknbUWaExmsbK3adiW3-++++TI/-Tmp-//cc58MKou.s 			page 27


 1518 0070 6D        		.byte	109
 1519 0071 6A        		.byte	106
 1520 0072 65        		.byte	101
 1521 0073 5C        		.byte	92
 1522 0074 50        		.byte	80
 1523 0075 43        		.byte	67
 1524 0076 3A        		.byte	58
 1525 0077 34        		.byte	52
 1526 0078 31        		.byte	49
 1527 0079 2E        		.byte	46
 1528 007a 2B        		.byte	43
 1529 007b 27        		.byte	39
 1530 007c 21        		.byte	33
 1531 007d 1B        		.byte	27
 1532 007e 16        		.byte	22
 1533 007f 12        		.byte	18
 1534 0080 0E        		.byte	14
 1535 0081 0B        		.byte	11
 1536 0082 07        		.byte	7
 1537 0083 05        		.byte	5
 1538 0084 03        		.byte	3
 1539 0085 01        		.byte	1
 1540 0086 01        		.byte	1
 1541 0087 00        		.byte	0
 1542 0088 01        		.byte	1
 1543 0089 00        		.byte	0
 1544               	.global	song2a
 1545               		.data
 1548               	song2a:
 1549 0004 7700      		.word	119
 1550 0006 0000      		.word	song2anotes
 1551               	.global	song2bnotes
 1552               		.section	.progmem.data
 1555               	song2bnotes:
 1556 008a 01        		.byte	1
 1557 008b 1F        		.byte	31
 1558 008c 59        		.byte	89
 1559 008d 7E        		.byte	126
 1560 008e 77        		.byte	119
 1561 008f 55        		.byte	85
 1562 0090 2A        		.byte	42
 1563 0091 06        		.byte	6
 1564 0092 01        		.byte	1
 1565 0093 01        		.byte	1
 1566 0094 01        		.byte	1
 1567 0095 01        		.byte	1
 1568 0096 01        		.byte	1
 1569 0097 01        		.byte	1
 1570 0098 08        		.byte	8
 1571 0099 16        		.byte	22
 1572 009a 25        		.byte	37
 1573 009b 33        		.byte	51
 1574 009c 40        		.byte	64
 1575 009d 48        		.byte	72
 1576 009e 50        		.byte	80
 1577 009f 5C        		.byte	92
 1578 00a0 6C        		.byte	108
GAS LISTING /var/folders/co/coknbUWaExmsbK3adiW3-++++TI/-Tmp-//cc58MKou.s 			page 28


 1579 00a1 7A        		.byte	122
 1580 00a2 7F        		.byte	127
 1581 00a3 7A        		.byte	122
 1582 00a4 75        		.byte	117
 1583 00a5 7C        		.byte	124
 1584 00a6 8F        		.byte	-113
 1585 00a7 A3        		.byte	-93
 1586 00a8 A7        		.byte	-89
 1587 00a9 9B        		.byte	-101
 1588 00aa 8B        		.byte	-117
 1589 00ab 87        		.byte	-121
 1590 00ac 8E        		.byte	-114
 1591 00ad 96        		.byte	-106
 1592 00ae 96        		.byte	-106
 1593 00af 8D        		.byte	-115
 1594 00b0 83        		.byte	-125
 1595 00b1 81        		.byte	-127
 1596 00b2 85        		.byte	-123
 1597 00b3 8B        		.byte	-117
 1598 00b4 8F        		.byte	-113
 1599 00b5 92        		.byte	-110
 1600 00b6 95        		.byte	-107
 1601 00b7 98        		.byte	-104
 1602 00b8 96        		.byte	-106
 1603 00b9 90        		.byte	-112
 1604 00ba 8A        		.byte	-118
 1605 00bb 8A        		.byte	-118
 1606 00bc 91        		.byte	-111
 1607 00bd 96        		.byte	-106
 1608 00be 93        		.byte	-109
 1609 00bf 89        		.byte	-119
 1610 00c0 84        		.byte	-124
 1611 00c1 89        		.byte	-119
 1612 00c2 99        		.byte	-103
 1613 00c3 A6        		.byte	-90
 1614 00c4 A7        		.byte	-89
 1615 00c5 9C        		.byte	-100
 1616 00c6 94        		.byte	-108
 1617 00c7 95        		.byte	-107
 1618 00c8 9C        		.byte	-100
 1619 00c9 A1        		.byte	-95
 1620 00ca 9C        		.byte	-100
 1621 00cb 93        		.byte	-109
 1622 00cc 8D        		.byte	-115
 1623 00cd 91        		.byte	-111
 1624 00ce 98        		.byte	-104
 1625 00cf 9D        		.byte	-99
 1626 00d0 9C        		.byte	-100
 1627 00d1 9A        		.byte	-102
 1628 00d2 9C        		.byte	-100
 1629 00d3 A1        		.byte	-95
 1630 00d4 A1        		.byte	-95
 1631 00d5 98        		.byte	-104
 1632 00d6 8C        		.byte	-116
 1633 00d7 85        		.byte	-123
 1634 00d8 83        		.byte	-125
 1635 00d9 82        		.byte	-126
GAS LISTING /var/folders/co/coknbUWaExmsbK3adiW3-++++TI/-Tmp-//cc58MKou.s 			page 29


 1636 00da 7C        		.byte	124
 1637 00db 72        		.byte	114
 1638 00dc 69        		.byte	105
 1639 00dd 66        		.byte	102
 1640 00de 67        		.byte	103
 1641 00df 65        		.byte	101
 1642 00e0 5D        		.byte	93
 1643 00e1 52        		.byte	82
 1644 00e2 4A        		.byte	74
 1645 00e3 44        		.byte	68
 1646 00e4 3F        		.byte	63
 1647 00e5 37        		.byte	55
 1648 00e6 2E        		.byte	46
 1649 00e7 26        		.byte	38
 1650 00e8 20        		.byte	32
 1651 00e9 1D        		.byte	29
 1652 00ea 19        		.byte	25
 1653 00eb 14        		.byte	20
 1654 00ec 0F        		.byte	15
 1655 00ed 0B        		.byte	11
 1656 00ee 08        		.byte	8
 1657 00ef 06        		.byte	6
 1658 00f0 04        		.byte	4
 1659 00f1 02        		.byte	2
 1660 00f2 01        		.byte	1
 1661 00f3 01        		.byte	1
 1662 00f4 00        		.byte	0
 1663 00f5 00        		.byte	0
 1664               	.global	song2b
 1665               		.data
 1668               	song2b:
 1669 0008 6C00      		.word	108
 1670 000a 0000      		.word	song2bnotes
 1671               	.global	song2cnotes
 1672               		.section	.progmem.data
 1675               	song2cnotes:
 1676 00f6 02        		.byte	2
 1677 00f7 19        		.byte	25
 1678 00f8 46        		.byte	70
 1679 00f9 75        		.byte	117
 1680 00fa 92        		.byte	-110
 1681 00fb 90        		.byte	-112
 1682 00fc 6F        		.byte	111
 1683 00fd 3D        		.byte	61
 1684 00fe 12        		.byte	18
 1685 00ff 01        		.byte	1
 1686 0100 01        		.byte	1
 1687 0101 01        		.byte	1
 1688 0102 01        		.byte	1
 1689 0103 01        		.byte	1
 1690 0104 01        		.byte	1
 1691 0105 01        		.byte	1
 1692 0106 01        		.byte	1
 1693 0107 08        		.byte	8
 1694 0108 12        		.byte	18
 1695 0109 1C        		.byte	28
 1696 010a 27        		.byte	39
GAS LISTING /var/folders/co/coknbUWaExmsbK3adiW3-++++TI/-Tmp-//cc58MKou.s 			page 30


 1697 010b 32        		.byte	50
 1698 010c 3C        		.byte	60
 1699 010d 45        		.byte	69
 1700 010e 4E        		.byte	78
 1701 010f 55        		.byte	85
 1702 0110 5C        		.byte	92
 1703 0111 63        		.byte	99
 1704 0112 69        		.byte	105
 1705 0113 6F        		.byte	111
 1706 0114 76        		.byte	118
 1707 0115 7E        		.byte	126
 1708 0116 86        		.byte	-122
 1709 0117 8E        		.byte	-114
 1710 0118 95        		.byte	-107
 1711 0119 9B        		.byte	-101
 1712 011a 9F        		.byte	-97
 1713 011b A1        		.byte	-95
 1714 011c A0        		.byte	-96
 1715 011d 9C        		.byte	-100
 1716 011e 98        		.byte	-104
 1717 011f 92        		.byte	-110
 1718 0120 8B        		.byte	-117
 1719 0121 86        		.byte	-122
 1720 0122 81        		.byte	-127
 1721 0123 7E        		.byte	126
 1722 0124 7D        		.byte	125
 1723 0125 7E        		.byte	126
 1724 0126 81        		.byte	-127
 1725 0127 86        		.byte	-122
 1726 0128 8C        		.byte	-116
 1727 0129 94        		.byte	-108
 1728 012a 9B        		.byte	-101
 1729 012b A2        		.byte	-94
 1730 012c A8        		.byte	-88
 1731 012d AB        		.byte	-85
 1732 012e AC        		.byte	-84
 1733 012f AB        		.byte	-85
 1734 0130 A8        		.byte	-88
 1735 0131 A3        		.byte	-93
 1736 0132 9E        		.byte	-98
 1737 0133 99        		.byte	-103
 1738 0134 95        		.byte	-107
 1739 0135 92        		.byte	-110
 1740 0136 90        		.byte	-112
 1741 0137 90        		.byte	-112
 1742 0138 92        		.byte	-110
 1743 0139 94        		.byte	-108
 1744 013a 97        		.byte	-105
 1745 013b 9A        		.byte	-102
 1746 013c 9D        		.byte	-99
 1747 013d 9E        		.byte	-98
 1748 013e 9E        		.byte	-98
 1749 013f 9D        		.byte	-99
 1750 0140 9A        		.byte	-102
 1751 0141 96        		.byte	-106
 1752 0142 91        		.byte	-111
 1753 0143 8D        		.byte	-115
GAS LISTING /var/folders/co/coknbUWaExmsbK3adiW3-++++TI/-Tmp-//cc58MKou.s 			page 31


 1754 0144 89        		.byte	-119
 1755 0145 86        		.byte	-122
 1756 0146 85        		.byte	-123
 1757 0147 84        		.byte	-124
 1758 0148 86        		.byte	-122
 1759 0149 88        		.byte	-120
 1760 014a 8B        		.byte	-117
 1761 014b 8F        		.byte	-113
 1762 014c 93        		.byte	-109
 1763 014d 95        		.byte	-107
 1764 014e 96        		.byte	-106
 1765 014f 96        		.byte	-106
 1766 0150 93        		.byte	-109
 1767 0151 8F        		.byte	-113
 1768 0152 8A        		.byte	-118
 1769 0153 85        		.byte	-123
 1770 0154 80        		.byte	-128
 1771 0155 7B        		.byte	123
 1772 0156 76        		.byte	118
 1773 0157 73        		.byte	115
 1774 0158 71        		.byte	113
 1775 0159 6F        		.byte	111
 1776 015a 6D        		.byte	109
 1777 015b 6C        		.byte	108
 1778 015c 69        		.byte	105
 1779 015d 66        		.byte	102
 1780 015e 62        		.byte	98
 1781 015f 5C        		.byte	92
 1782 0160 56        		.byte	86
 1783 0161 4E        		.byte	78
 1784 0162 46        		.byte	70
 1785 0163 3F        		.byte	63
 1786 0164 37        		.byte	55
 1787 0165 30        		.byte	48
 1788 0166 2A        		.byte	42
 1789 0167 25        		.byte	37
 1790 0168 21        		.byte	33
 1791 0169 1D        		.byte	29
 1792 016a 19        		.byte	25
 1793 016b 16        		.byte	22
 1794 016c 13        		.byte	19
 1795 016d 10        		.byte	16
 1796 016e 0D        		.byte	13
 1797 016f 0A        		.byte	10
 1798 0170 07        		.byte	7
 1799 0171 05        		.byte	5
 1800 0172 03        		.byte	3
 1801 0173 02        		.byte	2
 1802 0174 01        		.byte	1
 1803 0175 01        		.byte	1
 1804 0176 00        		.byte	0
 1805 0177 00        		.byte	0
 1806               	.global	song2c
 1807               		.data
 1810               	song2c:
 1811 000c 8200      		.word	130
 1812 000e 0000      		.word	song2cnotes
GAS LISTING /var/folders/co/coknbUWaExmsbK3adiW3-++++TI/-Tmp-//cc58MKou.s 			page 32


 1813               	.global	song2dnotes
 1814               		.section	.progmem.data
 1817               	song2dnotes:
 1818 0178 01        		.byte	1
 1819 0179 1B        		.byte	27
 1820 017a 48        		.byte	72
 1821 017b 6D        		.byte	109
 1822 017c 79        		.byte	121
 1823 017d 68        		.byte	104
 1824 017e 3D        		.byte	61
 1825 017f 11        		.byte	17
 1826 0180 01        		.byte	1
 1827 0181 01        		.byte	1
 1828 0182 01        		.byte	1
 1829 0183 01        		.byte	1
 1830 0184 01        		.byte	1
 1831 0185 01        		.byte	1
 1832 0186 01        		.byte	1
 1833 0187 0B        		.byte	11
 1834 0188 15        		.byte	21
 1835 0189 22        		.byte	34
 1836 018a 30        		.byte	48
 1837 018b 3C        		.byte	60
 1838 018c 46        		.byte	70
 1839 018d 4D        		.byte	77
 1840 018e 56        		.byte	86
 1841 018f 63        		.byte	99
 1842 0190 73        		.byte	115
 1843 0191 80        		.byte	-128
 1844 0192 87        		.byte	-121
 1845 0193 87        		.byte	-121
 1846 0194 86        		.byte	-122
 1847 0195 88        		.byte	-120
 1848 0196 8D        		.byte	-115
 1849 0197 90        		.byte	-112
 1850 0198 8F        		.byte	-113
 1851 0199 8B        		.byte	-117
 1852 019a 8A        		.byte	-118
 1853 019b 8D        		.byte	-115
 1854 019c 93        		.byte	-109
 1855 019d 94        		.byte	-108
 1856 019e 8E        		.byte	-114
 1857 019f 83        		.byte	-125
 1858 01a0 7B        		.byte	123
 1859 01a1 7E        		.byte	126
 1860 01a2 8A        		.byte	-118
 1861 01a3 99        		.byte	-103
 1862 01a4 A4        		.byte	-92
 1863 01a5 A6        		.byte	-90
 1864 01a6 A1        		.byte	-95
 1865 01a7 9C        		.byte	-100
 1866 01a8 9A        		.byte	-102
 1867 01a9 9A        		.byte	-102
 1868 01aa 99        		.byte	-103
 1869 01ab 97        		.byte	-105
 1870 01ac 96        		.byte	-106
 1871 01ad 9B        		.byte	-101
GAS LISTING /var/folders/co/coknbUWaExmsbK3adiW3-++++TI/-Tmp-//cc58MKou.s 			page 33


 1872 01ae A3        		.byte	-93
 1873 01af A9        		.byte	-87
 1874 01b0 A6        		.byte	-90
 1875 01b1 98        		.byte	-104
 1876 01b2 88        		.byte	-120
 1877 01b3 7E        		.byte	126
 1878 01b4 80        		.byte	-128
 1879 01b5 8B        		.byte	-117
 1880 01b6 97        		.byte	-105
 1881 01b7 9C        		.byte	-100
 1882 01b8 99        		.byte	-103
 1883 01b9 92        		.byte	-110
 1884 01ba 8C        		.byte	-116
 1885 01bb 88        		.byte	-120
 1886 01bc 83        		.byte	-125
 1887 01bd 7B        		.byte	123
 1888 01be 73        		.byte	115
 1889 01bf 6E        		.byte	110
 1890 01c0 6E        		.byte	110
 1891 01c1 70        		.byte	112
 1892 01c2 6E        		.byte	110
 1893 01c3 64        		.byte	100
 1894 01c4 56        		.byte	86
 1895 01c5 49        		.byte	73
 1896 01c6 41        		.byte	65
 1897 01c7 3E        		.byte	62
 1898 01c8 3C        		.byte	60
 1899 01c9 3A        		.byte	58
 1900 01ca 34        		.byte	52
 1901 01cb 2E        		.byte	46
 1902 01cc 28        		.byte	40
 1903 01cd 23        		.byte	35
 1904 01ce 1F        		.byte	31
 1905 01cf 19        		.byte	25
 1906 01d0 14        		.byte	20
 1907 01d1 0F        		.byte	15
 1908 01d2 0B        		.byte	11
 1909 01d3 08        		.byte	8
 1910 01d4 06        		.byte	6
 1911 01d5 04        		.byte	4
 1912 01d6 02        		.byte	2
 1913 01d7 01        		.byte	1
 1914 01d8 01        		.byte	1
 1915 01d9 00        		.byte	0
 1916 01da 00        		.byte	0
 1917               	.global	song2d
 1918               		.data
 1921               	song2d:
 1922 0010 6300      		.word	99
 1923 0012 0000      		.word	song2dnotes
 1924               	.global	song2enotes
 1925               		.section	.progmem.data
 1928               	song2enotes:
 1929 01db 01        		.byte	1
 1930 01dc 1A        		.byte	26
 1931 01dd 49        		.byte	73
 1932 01de 74        		.byte	116
GAS LISTING /var/folders/co/coknbUWaExmsbK3adiW3-++++TI/-Tmp-//cc58MKou.s 			page 34


 1933 01df 83        		.byte	-125
 1934 01e0 73        		.byte	115
 1935 01e1 50        		.byte	80
 1936 01e2 27        		.byte	39
 1937 01e3 08        		.byte	8
 1938 01e4 01        		.byte	1
 1939 01e5 01        		.byte	1
 1940 01e6 01        		.byte	1
 1941 01e7 01        		.byte	1
 1942 01e8 01        		.byte	1
 1943 01e9 01        		.byte	1
 1944 01ea 01        		.byte	1
 1945 01eb 06        		.byte	6
 1946 01ec 0F        		.byte	15
 1947 01ed 1A        		.byte	26
 1948 01ee 24        		.byte	36
 1949 01ef 2F        		.byte	47
 1950 01f0 3A        		.byte	58
 1951 01f1 46        		.byte	70
 1952 01f2 52        		.byte	82
 1953 01f3 5B        		.byte	91
 1954 01f4 62        		.byte	98
 1955 01f5 66        		.byte	102
 1956 01f6 6A        		.byte	106
 1957 01f7 6F        		.byte	111
 1958 01f8 77        		.byte	119
 1959 01f9 83        		.byte	-125
 1960 01fa 90        		.byte	-112
 1961 01fb 9A        		.byte	-102
 1962 01fc 9D        		.byte	-99
 1963 01fd 99        		.byte	-103
 1964 01fe 90        		.byte	-112
 1965 01ff 89        		.byte	-119
 1966 0200 86        		.byte	-122
 1967 0201 89        		.byte	-119
 1968 0202 92        		.byte	-110
 1969 0203 9A        		.byte	-102
 1970 0204 9E        		.byte	-98
 1971 0205 9C        		.byte	-100
 1972 0206 95        		.byte	-107
 1973 0207 8D        		.byte	-115
 1974 0208 89        		.byte	-119
 1975 0209 8A        		.byte	-118
 1976 020a 8F        		.byte	-113
 1977 020b 97        		.byte	-105
 1978 020c 9D        		.byte	-99
 1979 020d 9E        		.byte	-98
 1980 020e 9B        		.byte	-101
 1981 020f 97        		.byte	-105
 1982 0210 94        		.byte	-108
 1983 0211 96        		.byte	-106
 1984 0212 9A        		.byte	-102
 1985 0213 9E        		.byte	-98
 1986 0214 A0        		.byte	-96
 1987 0215 9E        		.byte	-98
 1988 0216 99        		.byte	-103
 1989 0217 94        		.byte	-108
GAS LISTING /var/folders/co/coknbUWaExmsbK3adiW3-++++TI/-Tmp-//cc58MKou.s 			page 35


 1990 0218 90        		.byte	-112
 1991 0219 91        		.byte	-111
 1992 021a 93        		.byte	-109
 1993 021b 96        		.byte	-106
 1994 021c 96        		.byte	-106
 1995 021d 92        		.byte	-110
 1996 021e 8C        		.byte	-116
 1997 021f 85        		.byte	-123
 1998 0220 82        		.byte	-126
 1999 0221 83        		.byte	-125
 2000 0222 87        		.byte	-121
 2001 0223 8C        		.byte	-116
 2002 0224 8F        		.byte	-113
 2003 0225 90        		.byte	-112
 2004 0226 8E        		.byte	-114
 2005 0227 8D        		.byte	-115
 2006 0228 8D        		.byte	-115
 2007 0229 90        		.byte	-112
 2008 022a 95        		.byte	-107
 2009 022b 99        		.byte	-103
 2010 022c 9C        		.byte	-100
 2011 022d 9D        		.byte	-99
 2012 022e 9D        		.byte	-99
 2013 022f 9D        		.byte	-99
 2014 0230 A0        		.byte	-96
 2015 0231 A4        		.byte	-92
 2016 0232 A7        		.byte	-89
 2017 0233 A7        		.byte	-89
 2018 0234 A1        		.byte	-95
 2019 0235 99        		.byte	-103
 2020 0236 91        		.byte	-111
 2021 0237 8E        		.byte	-114
 2022 0238 8F        		.byte	-113
 2023 0239 95        		.byte	-107
 2024 023a 9A        		.byte	-102
 2025 023b 9B        		.byte	-101
 2026 023c 95        		.byte	-107
 2027 023d 89        		.byte	-119
 2028 023e 7C        		.byte	124
 2029 023f 73        		.byte	115
 2030 0240 70        		.byte	112
 2031 0241 74        		.byte	116
 2032 0242 7B        		.byte	123
 2033 0243 80        		.byte	-128
 2034 0244 80        		.byte	-128
 2035 0245 79        		.byte	121
 2036 0246 6E        		.byte	110
 2037 0247 63        		.byte	99
 2038 0248 5B        		.byte	91
 2039 0249 58        		.byte	88
 2040 024a 58        		.byte	88
 2041 024b 59        		.byte	89
 2042 024c 57        		.byte	87
 2043 024d 53        		.byte	83
 2044 024e 4B        		.byte	75
 2045 024f 42        		.byte	66
 2046 0250 39        		.byte	57
GAS LISTING /var/folders/co/coknbUWaExmsbK3adiW3-++++TI/-Tmp-//cc58MKou.s 			page 36


 2047 0251 32        		.byte	50
 2048 0252 2C        		.byte	44
 2049 0253 26        		.byte	38
 2050 0254 22        		.byte	34
 2051 0255 1D        		.byte	29
 2052 0256 19        		.byte	25
 2053 0257 14        		.byte	20
 2054 0258 11        		.byte	17
 2055 0259 0D        		.byte	13
 2056 025a 09        		.byte	9
 2057 025b 07        		.byte	7
 2058 025c 04        		.byte	4
 2059 025d 03        		.byte	3
 2060 025e 01        		.byte	1
 2061 025f 01        		.byte	1
 2062 0260 00        		.byte	0
 2063 0261 01        		.byte	1
 2064 0262 00        		.byte	0
 2065               	.global	song2e
 2066               		.data
 2069               	song2e:
 2070 0014 8800      		.word	136
 2071 0016 0000      		.word	song2enotes
 2072               	.global	song2fnotes
 2073               		.section	.progmem.data
 2076               	song2fnotes:
 2077 0263 02        		.byte	2
 2078 0264 24        		.byte	36
 2079 0265 5E        		.byte	94
 2080 0266 82        		.byte	-126
 2081 0267 79        		.byte	121
 2082 0268 4F        		.byte	79
 2083 0269 1B        		.byte	27
 2084 026a 01        		.byte	1
 2085 026b 01        		.byte	1
 2086 026c 01        		.byte	1
 2087 026d 01        		.byte	1
 2088 026e 01        		.byte	1
 2089 026f 01        		.byte	1
 2090 0270 05        		.byte	5
 2091 0271 10        		.byte	16
 2092 0272 1E        		.byte	30
 2093 0273 2D        		.byte	45
 2094 0274 3B        		.byte	59
 2095 0275 47        		.byte	71
 2096 0276 52        		.byte	82
 2097 0277 5E        		.byte	94
 2098 0278 6B        		.byte	107
 2099 0279 77        		.byte	119
 2100 027a 82        		.byte	-126
 2101 027b 89        		.byte	-119
 2102 027c 8E        		.byte	-114
 2103 027d 93        		.byte	-109
 2104 027e 97        		.byte	-105
 2105 027f 9A        		.byte	-102
 2106 0280 99        		.byte	-103
 2107 0281 95        		.byte	-107
GAS LISTING /var/folders/co/coknbUWaExmsbK3adiW3-++++TI/-Tmp-//cc58MKou.s 			page 37


 2108 0282 90        		.byte	-112
 2109 0283 8D        		.byte	-115
 2110 0284 8D        		.byte	-115
 2111 0285 8F        		.byte	-113
 2112 0286 8F        		.byte	-113
 2113 0287 8C        		.byte	-116
 2114 0288 86        		.byte	-122
 2115 0289 83        		.byte	-125
 2116 028a 87        		.byte	-121
 2117 028b 91        		.byte	-111
 2118 028c A0        		.byte	-96
 2119 028d AB        		.byte	-85
 2120 028e AC        		.byte	-84
 2121 028f A3        		.byte	-93
 2122 0290 96        		.byte	-106
 2123 0291 8D        		.byte	-115
 2124 0292 8C        		.byte	-116
 2125 0293 91        		.byte	-111
 2126 0294 97        		.byte	-105
 2127 0295 98        		.byte	-104
 2128 0296 93        		.byte	-109
 2129 0297 8A        		.byte	-118
 2130 0298 86        		.byte	-122
 2131 0299 88        		.byte	-120
 2132 029a 93        		.byte	-109
 2133 029b 9F        		.byte	-97
 2134 029c A5        		.byte	-91
 2135 029d A2        		.byte	-94
 2136 029e 98        		.byte	-104
 2137 029f 8C        		.byte	-116
 2138 02a0 84        		.byte	-124
 2139 02a1 81        		.byte	-127
 2140 02a2 83        		.byte	-125
 2141 02a3 84        		.byte	-124
 2142 02a4 83        		.byte	-125
 2143 02a5 7F        		.byte	127
 2144 02a6 7B        		.byte	123
 2145 02a7 77        		.byte	119
 2146 02a8 74        		.byte	116
 2147 02a9 70        		.byte	112
 2148 02aa 69        		.byte	105
 2149 02ab 60        		.byte	96
 2150 02ac 56        		.byte	86
 2151 02ad 4D        		.byte	77
 2152 02ae 45        		.byte	69
 2153 02af 3E        		.byte	62
 2154 02b0 36        		.byte	54
 2155 02b1 2D        		.byte	45
 2156 02b2 26        		.byte	38
 2157 02b3 1F        		.byte	31
 2158 02b4 1B        		.byte	27
 2159 02b5 17        		.byte	23
 2160 02b6 13        		.byte	19
 2161 02b7 0E        		.byte	14
 2162 02b8 0A        		.byte	10
 2163 02b9 06        		.byte	6
 2164 02ba 04        		.byte	4
GAS LISTING /var/folders/co/coknbUWaExmsbK3adiW3-++++TI/-Tmp-//cc58MKou.s 			page 38


 2165 02bb 02        		.byte	2
 2166 02bc 01        		.byte	1
 2167 02bd 01        		.byte	1
 2168 02be 00        		.byte	0
 2169 02bf 00        		.byte	0
 2170               	.global	song2f
 2171               		.data
 2174               	song2f:
 2175 0018 5D00      		.word	93
 2176 001a 0000      		.word	song2fnotes
 2177               	.global	song2gnotes
 2178               		.section	.progmem.data
 2181               	song2gnotes:
 2182 02c0 02        		.byte	2
 2183 02c1 2A        		.byte	42
 2184 02c2 63        		.byte	99
 2185 02c3 79        		.byte	121
 2186 02c4 60        		.byte	96
 2187 02c5 2A        		.byte	42
 2188 02c6 03        		.byte	3
 2189 02c7 01        		.byte	1
 2190 02c8 01        		.byte	1
 2191 02c9 01        		.byte	1
 2192 02ca 01        		.byte	1
 2193 02cb 01        		.byte	1
 2194 02cc 0C        		.byte	12
 2195 02cd 19        		.byte	25
 2196 02ce 29        		.byte	41
 2197 02cf 3C        		.byte	60
 2198 02d0 4D        		.byte	77
 2199 02d1 56        		.byte	86
 2200 02d2 5B        		.byte	91
 2201 02d3 64        		.byte	100
 2202 02d4 76        		.byte	118
 2203 02d5 88        		.byte	-120
 2204 02d6 90        		.byte	-112
 2205 02d7 8F        		.byte	-113
 2206 02d8 8D        		.byte	-115
 2207 02d9 92        		.byte	-110
 2208 02da 99        		.byte	-103
 2209 02db 9B        		.byte	-101
 2210 02dc 99        		.byte	-103
 2211 02dd 98        		.byte	-104
 2212 02de 9B        		.byte	-101
 2213 02df 9A        		.byte	-102
 2214 02e0 94        		.byte	-108
 2215 02e1 8D        		.byte	-115
 2216 02e2 8E        		.byte	-114
 2217 02e3 98        		.byte	-104
 2218 02e4 9F        		.byte	-97
 2219 02e5 9A        		.byte	-102
 2220 02e6 8E        		.byte	-114
 2221 02e7 88        		.byte	-120
 2222 02e8 8D        		.byte	-115
 2223 02e9 98        		.byte	-104
 2224 02ea 99        		.byte	-103
 2225 02eb 8F        		.byte	-113
GAS LISTING /var/folders/co/coknbUWaExmsbK3adiW3-++++TI/-Tmp-//cc58MKou.s 			page 39


 2226 02ec 84        		.byte	-124
 2227 02ed 7E        		.byte	126
 2228 02ee 7C        		.byte	124
 2229 02ef 78        		.byte	120
 2230 02f0 6F        		.byte	111
 2231 02f1 65        		.byte	101
 2232 02f2 5C        		.byte	92
 2233 02f3 53        		.byte	83
 2234 02f4 48        		.byte	72
 2235 02f5 3B        		.byte	59
 2236 02f6 31        		.byte	49
 2237 02f7 2B        		.byte	43
 2238 02f8 26        		.byte	38
 2239 02f9 1E        		.byte	30
 2240 02fa 15        		.byte	21
 2241 02fb 0F        		.byte	15
 2242 02fc 0B        		.byte	11
 2243 02fd 08        		.byte	8
 2244 02fe 05        		.byte	5
 2245 02ff 03        		.byte	3
 2246 0300 01        		.byte	1
 2247 0301 01        		.byte	1
 2248 0302 00        		.byte	0
 2249 0303 00        		.byte	0
 2250               	.global	song2g
 2251               		.data
 2254               	song2g:
 2255 001c 4400      		.word	68
 2256 001e 0000      		.word	song2gnotes
 2257               	.global	bootsongs
 2260               	bootsongs:
 2261 0020 0000      		.word	bootsong
 2262               	.global	songs
 2265               	songs:
 2266 0022 0000      		.word	song2a
 2267 0024 0000      		.word	song2b
 2268 0026 0000      		.word	song2b
 2269 0028 0000      		.word	song2c
 2270 002a 0000      		.word	song2c
 2271 002c 0000      		.word	song2c
 2272 002e 0000      		.word	song2d
 2273 0030 0000      		.word	song2d
 2274 0032 0000      		.word	song2e
 2275 0034 0000      		.word	song2e
 2276 0036 0000      		.word	song2e
 2277 0038 0000      		.word	song2f
 2278 003a 0000      		.word	song2f
 2279 003c 0000      		.word	song2g
 2280 003e 0000      		.word	song2g
 2281 0040 0000      		.word	song2g
 2282               	.global	bitmasks
 2283               		.section	.progmem.data
 2286               	bitmasks:
 2287 0304 00        		.byte	0
 2288 0305 01        		.byte	1
 2289 0306 03        		.byte	3
 2290 0307 07        		.byte	7
GAS LISTING /var/folders/co/coknbUWaExmsbK3adiW3-++++TI/-Tmp-//cc58MKou.s 			page 40


 2291 0308 0F        		.byte	15
 2292 0309 1F        		.byte	31
 2293 030a 3F        		.byte	63
 2294 030b 7F        		.byte	127
 2295 030c FF        		.byte	-1
 2296               	.global	about
 2299               	about:
 2300 030d 4A61 7220 		.ascii	"Jar of Fireflies\nDesign and Implementation by Xander Hudson"
 2300      6F66 2046 
 2300      6972 6566 
 2300      6C69 6573 
 2300      0A44 6573 
 2301 0348 2028 6A61 		.ascii	" (jar@synoptic.org)\nIdea and Inspiration by Kayobi Tierney\n"
 2301      7240 7379 
 2301      6E6F 7074 
 2301      6963 2E6F 
 2301      7267 290A 
 2302 0383 5370 6563 		.ascii	"Specia"
 2302      6961 
 2303 0389 6C20 7468 		.string	"l thanks to Katie Horn for getting me to think about electronics"
 2303      616E 6B73 
 2303      2074 6F20 
 2303      4B61 7469 
 2303      6520 486F 
 2304               	.global	version
 2307               	version:
 2308 03ca 2452 6576 		.string	"$Revision: 1.41 $ $Date: 2007/01/10 04:35:55 $"
 2308      6973 696F 
 2308      6E3A 2031 
 2308      2E34 3120 
 2308      2420 2444 
 2309               	.global	mood
 2310               		.data
 2313               	mood:
 2314 0042 02        		.byte	2
 2315               	.global	mood_count
 2318               	mood_count:
 2319 0043 1E00      		.word	30
 2320               		.lcomm temp.1721,1
 2321               		.lcomm ch2noteptr.1720,2
 2322               		.lcomm ch1noteptr.1719,2
 2323               		.lcomm ch2song.1718,2
 2324               		.lcomm ch1song.1717,2
 2327               	lfsr.1632:
 2328 0045 CE74      		.word	29902
 2329               		.lcomm ticker.1619,1
 2332               	ch1pins.1521:
 2333 0047 08        		.byte	8
 2334 0048 04        		.byte	4
 2335 0049 01        		.byte	1
 2338               	masterpins.1520:
 2339 004a 10        		.byte	16
 2340 004b 02        		.byte	2
 2341               		.lcomm x.1435,1
 2344               	debounce.1683:
 2345 004c 0A        		.byte	10
 2346               		.comm ch1restcount,1,1
GAS LISTING /var/folders/co/coknbUWaExmsbK3adiW3-++++TI/-Tmp-//cc58MKou.s 			page 41


 2347               		.comm ch2restcount,1,1
 2348               		.comm ch1nextnote,1,1
 2349               		.comm ch2nextnote,1,1
 2350               		.comm ch1scale,1,1
 2351               		.comm ch2scale,1,1
 2352               		.comm ch1nextscale,1,1
 2353               		.comm ch2nextscale,1,1
 2354               		.comm masterpinmask,1,1
 2355               		.comm waiting_for_dark,1,1
 2356               		.comm is_dark,1,1
 2357               		.comm force_dark,1,1
 2462               	.Letext0:
GAS LISTING /var/folders/co/coknbUWaExmsbK3adiW3-++++TI/-Tmp-//cc58MKou.s 			page 42


DEFINED SYMBOLS
                            *ABS*:00000000 firefly.c
/var/folders/co/coknbUWaExmsbK3adiW3-++++TI/-Tmp-//cc58MKou.s:2      *ABS*:0000003f __SREG__
/var/folders/co/coknbUWaExmsbK3adiW3-++++TI/-Tmp-//cc58MKou.s:3      *ABS*:0000003e __SP_H__
/var/folders/co/coknbUWaExmsbK3adiW3-++++TI/-Tmp-//cc58MKou.s:4      *ABS*:0000003d __SP_L__
/var/folders/co/coknbUWaExmsbK3adiW3-++++TI/-Tmp-//cc58MKou.s:5      *ABS*:00000034 __CCP__
/var/folders/co/coknbUWaExmsbK3adiW3-++++TI/-Tmp-//cc58MKou.s:6      *ABS*:00000000 __tmp_reg__
/var/folders/co/coknbUWaExmsbK3adiW3-++++TI/-Tmp-//cc58MKou.s:7      *ABS*:00000001 __zero_reg__
/var/folders/co/coknbUWaExmsbK3adiW3-++++TI/-Tmp-//cc58MKou.s:18     .text:00000000 __vector_12
                            *COM*:00000001 force_dark
/var/folders/co/coknbUWaExmsbK3adiW3-++++TI/-Tmp-//cc58MKou.s:2344   .data:0000004c debounce.1683
                            *COM*:00000001 is_dark
                            *COM*:00000001 ch1restcount
                            *COM*:00000001 ch2restcount
/var/folders/co/coknbUWaExmsbK3adiW3-++++TI/-Tmp-//cc58MKou.s:2318   .data:00000043 mood_count
/var/folders/co/coknbUWaExmsbK3adiW3-++++TI/-Tmp-//cc58MKou.s:140    .text:000000ba __vector_10
                            *COM*:00000001 waiting_for_dark
/var/folders/co/coknbUWaExmsbK3adiW3-++++TI/-Tmp-//cc58MKou.s:2329   .bss:0000000a x.1435
                            *COM*:00000001 ch1nextnote
                            *COM*:00000001 ch2nextnote
                            *COM*:00000001 masterpinmask
/var/folders/co/coknbUWaExmsbK3adiW3-++++TI/-Tmp-//cc58MKou.s:279    .text:0000017e von_314
/var/folders/co/coknbUWaExmsbK3adiW3-++++TI/-Tmp-//cc58MKou.s:281    .text:00000180 turnon_314
/var/folders/co/coknbUWaExmsbK3adiW3-++++TI/-Tmp-//cc58MKou.s:285    .text:00000186 turnoff_314
/var/folders/co/coknbUWaExmsbK3adiW3-++++TI/-Tmp-//cc58MKou.s:287    .text:00000188 done_314
/var/folders/co/coknbUWaExmsbK3adiW3-++++TI/-Tmp-//cc58MKou.s:303    .text:00000198 von_322
/var/folders/co/coknbUWaExmsbK3adiW3-++++TI/-Tmp-//cc58MKou.s:305    .text:0000019a turnon_322
/var/folders/co/coknbUWaExmsbK3adiW3-++++TI/-Tmp-//cc58MKou.s:309    .text:000001a0 turnoff_322
/var/folders/co/coknbUWaExmsbK3adiW3-++++TI/-Tmp-//cc58MKou.s:311    .text:000001a2 done_322
/var/folders/co/coknbUWaExmsbK3adiW3-++++TI/-Tmp-//cc58MKou.s:328    .text:000001ae showbootup
/var/folders/co/coknbUWaExmsbK3adiW3-++++TI/-Tmp-//cc58MKou.s:2260   .data:00000020 bootsongs
/var/folders/co/coknbUWaExmsbK3adiW3-++++TI/-Tmp-//cc58MKou.s:2338   .data:0000004a masterpins.1520
/var/folders/co/coknbUWaExmsbK3adiW3-++++TI/-Tmp-//cc58MKou.s:2332   .data:00000047 ch1pins.1521
/var/folders/co/coknbUWaExmsbK3adiW3-++++TI/-Tmp-//cc58MKou.s:500    .text:0000026e randbits
/var/folders/co/coknbUWaExmsbK3adiW3-++++TI/-Tmp-//cc58MKou.s:2327   .data:00000045 lfsr.1632
/var/folders/co/coknbUWaExmsbK3adiW3-++++TI/-Tmp-//cc58MKou.s:2286   .progmem.data:00000304 bitmasks
/var/folders/co/coknbUWaExmsbK3adiW3-++++TI/-Tmp-//cc58MKou.s:560    .text:000002b0 pickmaster
/var/folders/co/coknbUWaExmsbK3adiW3-++++TI/-Tmp-//cc58MKou.s:2324   .bss:00000009 ticker.1619
/var/folders/co/coknbUWaExmsbK3adiW3-++++TI/-Tmp-//cc58MKou.s:593    .text:000002d6 pickapin
/var/folders/co/coknbUWaExmsbK3adiW3-++++TI/-Tmp-//cc58MKou.s:658    .text:00000316 randscaleval
/var/folders/co/coknbUWaExmsbK3adiW3-++++TI/-Tmp-//cc58MKou.s:698    .text:0000034e randwaitval
/var/folders/co/coknbUWaExmsbK3adiW3-++++TI/-Tmp-//cc58MKou.s:2313   .data:00000042 mood
/var/folders/co/coknbUWaExmsbK3adiW3-++++TI/-Tmp-//cc58MKou.s:748    .text:0000039c pickasong
/var/folders/co/coknbUWaExmsbK3adiW3-++++TI/-Tmp-//cc58MKou.s:2265   .data:00000022 songs
/var/folders/co/coknbUWaExmsbK3adiW3-++++TI/-Tmp-//cc58MKou.s:776    .text:000003bc lighted_fireflies
                             .bss:00000000 temp.1721
/var/folders/co/coknbUWaExmsbK3adiW3-++++TI/-Tmp-//cc58MKou.s:2321   .bss:00000003 ch1noteptr.1719
/var/folders/co/coknbUWaExmsbK3adiW3-++++TI/-Tmp-//cc58MKou.s:2323   .bss:00000007 ch1song.1717
                            *COM*:00000001 ch1scale
/var/folders/co/coknbUWaExmsbK3adiW3-++++TI/-Tmp-//cc58MKou.s:2320   .bss:00000001 ch2noteptr.1720
/var/folders/co/coknbUWaExmsbK3adiW3-++++TI/-Tmp-//cc58MKou.s:2322   .bss:00000005 ch2song.1718
                            *COM*:00000001 ch2scale
/var/folders/co/coknbUWaExmsbK3adiW3-++++TI/-Tmp-//cc58MKou.s:1211   .text:000005f4 main
/var/folders/co/coknbUWaExmsbK3adiW3-++++TI/-Tmp-//cc58MKou.s:1393   .progmem.data:00000000 bootsongnotes
/var/folders/co/coknbUWaExmsbK3adiW3-++++TI/-Tmp-//cc58MKou.s:1417   .data:00000000 bootsong
/var/folders/co/coknbUWaExmsbK3adiW3-++++TI/-Tmp-//cc58MKou.s:1424   .progmem.data:00000013 song2anotes
/var/folders/co/coknbUWaExmsbK3adiW3-++++TI/-Tmp-//cc58MKou.s:1548   .data:00000004 song2a
GAS LISTING /var/folders/co/coknbUWaExmsbK3adiW3-++++TI/-Tmp-//cc58MKou.s 			page 43


/var/folders/co/coknbUWaExmsbK3adiW3-++++TI/-Tmp-//cc58MKou.s:1555   .progmem.data:0000008a song2bnotes
/var/folders/co/coknbUWaExmsbK3adiW3-++++TI/-Tmp-//cc58MKou.s:1668   .data:00000008 song2b
/var/folders/co/coknbUWaExmsbK3adiW3-++++TI/-Tmp-//cc58MKou.s:1675   .progmem.data:000000f6 song2cnotes
/var/folders/co/coknbUWaExmsbK3adiW3-++++TI/-Tmp-//cc58MKou.s:1810   .data:0000000c song2c
/var/folders/co/coknbUWaExmsbK3adiW3-++++TI/-Tmp-//cc58MKou.s:1817   .progmem.data:00000178 song2dnotes
/var/folders/co/coknbUWaExmsbK3adiW3-++++TI/-Tmp-//cc58MKou.s:1921   .data:00000010 song2d
/var/folders/co/coknbUWaExmsbK3adiW3-++++TI/-Tmp-//cc58MKou.s:1928   .progmem.data:000001db song2enotes
/var/folders/co/coknbUWaExmsbK3adiW3-++++TI/-Tmp-//cc58MKou.s:2069   .data:00000014 song2e
/var/folders/co/coknbUWaExmsbK3adiW3-++++TI/-Tmp-//cc58MKou.s:2076   .progmem.data:00000263 song2fnotes
/var/folders/co/coknbUWaExmsbK3adiW3-++++TI/-Tmp-//cc58MKou.s:2174   .data:00000018 song2f
/var/folders/co/coknbUWaExmsbK3adiW3-++++TI/-Tmp-//cc58MKou.s:2181   .progmem.data:000002c0 song2gnotes
/var/folders/co/coknbUWaExmsbK3adiW3-++++TI/-Tmp-//cc58MKou.s:2254   .data:0000001c song2g
/var/folders/co/coknbUWaExmsbK3adiW3-++++TI/-Tmp-//cc58MKou.s:2299   .progmem.data:0000030d about
/var/folders/co/coknbUWaExmsbK3adiW3-++++TI/-Tmp-//cc58MKou.s:2307   .progmem.data:000003ca version
                            *COM*:00000001 ch1nextscale
                            *COM*:00000001 ch2nextscale

UNDEFINED SYMBOLS
__mulhi3
__do_copy_data
__do_clear_bss
