GAS LISTING /var/folders/co/coknbUWaExmsbK3adiW3-++++TI/-Tmp-//ccwttGXi.s 			page 1


   1               		.file	"firefly.c"
   2               	__SREG__ = 0x3f
   3               	__SP_H__ = 0x3e
   4               	__SP_L__ = 0x3d
   5               	__CCP__  = 0x34
   6               	__tmp_reg__ = 0
   7               	__zero_reg__ = 1
  15               	.Ltext0:
  16               	.global	__vector_12
  18               	__vector_12:
  19               	.LFB2:
  20               	.LM1:
  21 0000 1F92      		push __zero_reg__
  22 0002 0F92      		push r0
  23 0004 0FB6      		in r0,__SREG__
  24 0006 0F92      		push r0
  25 0008 1124      		clr __zero_reg__
  26 000a 8F93      		push r24
  27 000c 9F93      		push r25
  28               	/* prologue: Signal */
  29               	/* frame size = 0 */
  30               	.LBB13:
  31               	.LBB14:
  32               	.LM2:
  33 000e 8FEE      		ldi r24,lo8(-17)
  34 0010 87BB      		out 55-32,r24
  35               	.LM3:
  36 0012 8DEF      		ldi r24,lo8(-3)
  37 0014 88BB      		out 56-32,r24
  38               	.LBB15:
  39               	.LBB16:
  40               	.LM4:
  41 0016 80B5      		in r24,64-32
  42 0018 8E7F      		andi r24,lo8(-2)
  43 001a 80BD      		out 64-32,r24
  44               	.LM5:
  45 001c 82E2      		ldi r24,lo8(34)
  46 001e 87B9      		out 39-32,r24
  47               	.L2:
  48               	.LM6:
  49 0020 3699      		sbic 38-32,6
  50 0022 00C0      		rjmp .L2
  51               	.LM7:
  52 0024 80EC      		ldi r24,lo8(-64)
  53 0026 86B9      		out 38-32,r24
  54               	.L3:
  55               	.LM8:
  56 0028 3699      		sbic 38-32,6
  57 002a 00C0      		rjmp .L3
  58               	.LM9:
  59 002c 95B1      		in r25,37-32
  60               	.LVL0:
  61               	.LM10:
  62 002e 3798      		cbi 38-32,7
  63               	.LM11:
  64 0030 80B5      		in r24,64-32
  65 0032 8160      		ori r24,lo8(1)
GAS LISTING /var/folders/co/coknbUWaExmsbK3adiW3-++++TI/-Tmp-//ccwttGXi.s 			page 2


  66 0034 80BD      		out 64-32,r24
  67               	.LBE16:
  68               	.LBE15:
  69               	.LM12:
  70 0036 8DEE      		ldi r24,lo8(-19)
  71 0038 88BB      		out 56-32,r24
  72               	.LM13:
  73 003a 8FEF      		ldi r24,lo8(-1)
  74 003c 87BB      		out 55-32,r24
  75               	.LM14:
  76 003e 913E      		cpi r25,lo8(-31)
  77 0040 00F4      		brsh .L4
  78 0042 8091 0000 		lds r24,force_dark
  79 0046 8823      		tst r24
  80 0048 01F0      		breq .L5
  81               	.L4:
  82               	.LM15:
  83 004a 8091 0000 		lds r24,debounce.1682
  84 004e 8150      		subi r24,lo8(-(-1))
  85 0050 8093 0000 		sts debounce.1682,r24
  86 0054 8F5F      		subi r24,lo8(-(1))
  87 0056 01F4      		brne .L6
  88               	.LM16:
  89 0058 8AE0      		ldi r24,lo8(10)
  90 005a 8093 0000 		sts debounce.1682,r24
  91               	.LM17:
  92 005e 81E0      		ldi r24,lo8(1)
  93 0060 8093 0000 		sts is_dark,r24
  94 0064 00C0      		rjmp .L6
  95               	.L5:
  96               	.LM18:
  97 0066 8AE0      		ldi r24,lo8(10)
  98 0068 8093 0000 		sts debounce.1682,r24
  99               	.LM19:
 100 006c 1092 0000 		sts is_dark,__zero_reg__
 101               	.L6:
 102               	.LBE14:
 103               	.LBE13:
 104               	.LM20:
 105 0070 899B      		sbis 49-32,1
 106 0072 00C0      		rjmp .L7
 107 0074 8091 0000 		lds r24,ch1restcount
 108 0078 8150      		subi r24,lo8(-(-1))
 109 007a 8093 0000 		sts ch1restcount,r24
 110 007e 8091 0000 		lds r24,ch1restcount
 111 0082 8823      		tst r24
 112 0084 01F4      		brne .L7
 113 0086 8998      		cbi 49-32,1
 114               	.L7:
 115               	.LM21:
 116 0088 8B9B      		sbis 49-32,3
 117 008a 00C0      		rjmp .L8
 118 008c 8091 0000 		lds r24,ch2restcount
 119 0090 8150      		subi r24,lo8(-(-1))
 120 0092 8093 0000 		sts ch2restcount,r24
 121 0096 8091 0000 		lds r24,ch2restcount
 122 009a 8823      		tst r24
GAS LISTING /var/folders/co/coknbUWaExmsbK3adiW3-++++TI/-Tmp-//ccwttGXi.s 			page 3


 123 009c 01F4      		brne .L8
 124 009e 8B98      		cbi 49-32,3
 125               	.L8:
 126               	.LM22:
 127 00a0 8C99      		sbic 49-32,4
 128 00a2 00C0      		rjmp .L10
 129 00a4 8091 0000 		lds r24,mood_count
 130 00a8 9091 0000 		lds r25,(mood_count)+1
 131 00ac 0197      		sbiw r24,1
 132 00ae 9093 0000 		sts (mood_count)+1,r25
 133 00b2 8093 0000 		sts mood_count,r24
 134 00b6 892B      		or r24,r25
 135 00b8 01F4      		brne .L10
 136 00ba 8C9A      		sbi 49-32,4
 137               	.L10:
 138               	/* epilogue start */
 139               	.LM23:
 140 00bc 9F91      		pop r25
 141               	.LVL1:
 142 00be 8F91      		pop r24
 143 00c0 0F90      		pop r0
 144 00c2 0FBE      		out __SREG__,r0
 145 00c4 0F90      		pop r0
 146 00c6 1F90      		pop __zero_reg__
 147 00c8 1895      		reti
 148               	.LFE2:
 150               	.global	__vector_10
 152               	__vector_10:
 153               	.LFB3:
 154               	.LM24:
 155 00ca 1F92      		push __zero_reg__
 156 00cc 0F92      		push r0
 157 00ce 0FB6      		in r0,__SREG__
 158 00d0 0F92      		push r0
 159 00d2 1124      		clr __zero_reg__
 160 00d4 8F93      		push r24
 161               	/* prologue: Signal */
 162               	/* frame size = 0 */
 163               	.LM25:
 164 00d6 8091 0000 		lds r24,waiting_for_dark
 165 00da 8823      		tst r24
 166 00dc 01F0      		breq .+2
 167 00de 00C0      		rjmp .L27
 168               	.LM26:
 169 00e0 88BA      		out 56-32,r8
 170               	.LM27:
 171 00e2 8091 0000 		lds r24,x.1435
 172 00e6 8150      		subi r24,lo8(-(-1))
 173 00e8 8093 0000 		sts x.1435,r24
 174 00ec 8F5F      		subi r24,lo8(-(1))
 175 00ee 01F0      		breq .+2
 176 00f0 00C0      		rjmp .L15
 177               	.LM28:
 178 00f2 889B      		sbis 49-32,0
 179 00f4 00C0      		rjmp .L16
 180               	.LM29:
 181 00f6 8E9B      		sbis 49-32,6
GAS LISTING /var/folders/co/coknbUWaExmsbK3adiW3-++++TI/-Tmp-//ccwttGXi.s 			page 4


 182 00f8 00C0      		rjmp .L17
 183               	.LM30:
 184 00fa 8091 0000 		lds r24,ch1nextnote
 185 00fe 282E      		mov r2,r24
 186               	.LM31:
 187 0100 8E98      		cbi 49-32,6
 188 0102 00C0      		rjmp .L18
 189               	.L17:
 190               	.LM32:
 191 0104 2224      		clr r2
 192               	.LM33:
 193 0106 8091 0000 		lds r24,ch1restcount
 194 010a 8823      		tst r24
 195 010c 01F0      		breq .L18
 196               	.LM34:
 197 010e 8898      		cbi 49-32,0
 198               	.LM35:
 199 0110 899A      		sbi 49-32,1
 200 0112 00C0      		rjmp .L18
 201               	.L16:
 202               	.LM36:
 203 0114 8999      		sbic 49-32,1
 204 0116 00C0      		rjmp .L18
 205 0118 8E9B      		sbis 49-32,6
 206 011a 00C0      		rjmp .L18
 207               	.LM37:
 208 011c 8091 0000 		lds r24,ch1nextnote
 209 0120 282E      		mov r2,r24
 210               	.LM38:
 211 0122 8E98      		cbi 49-32,6
 212               	.LM39:
 213 0124 889A      		sbi 49-32,0
 214               	.L18:
 215               	.LM40:
 216 0126 8A9B      		sbis 49-32,2
 217 0128 00C0      		rjmp .L19
 218               	.LM41:
 219 012a 8F9B      		sbis 49-32,7
 220 012c 00C0      		rjmp .L20
 221               	.LM42:
 222 012e 8091 0000 		lds r24,ch2nextnote
 223 0132 382E      		mov r3,r24
 224               	.LM43:
 225 0134 8F98      		cbi 49-32,7
 226 0136 00C0      		rjmp .L21
 227               	.L20:
 228               	.LM44:
 229 0138 3324      		clr r3
 230               	.LM45:
 231 013a 8091 0000 		lds r24,ch2restcount
 232 013e 8823      		tst r24
 233 0140 01F0      		breq .L21
 234               	.LM46:
 235 0142 8A98      		cbi 49-32,2
 236               	.LM47:
 237 0144 8B9A      		sbi 49-32,3
 238 0146 00C0      		rjmp .L21
GAS LISTING /var/folders/co/coknbUWaExmsbK3adiW3-++++TI/-Tmp-//ccwttGXi.s 			page 5


 239               	.L19:
 240               	.LM48:
 241 0148 8B99      		sbic 49-32,3
 242 014a 00C0      		rjmp .L21
 243 014c 8F9B      		sbis 49-32,7
 244 014e 00C0      		rjmp .L21
 245               	.LM49:
 246 0150 8091 0000 		lds r24,ch2nextnote
 247 0154 382E      		mov r3,r24
 248               	.LM50:
 249 0156 8F98      		cbi 49-32,7
 250               	.LM51:
 251 0158 8A9A      		sbi 49-32,2
 252               	.L21:
 253               	.LM52:
 254 015a 8899      		sbic 49-32,0
 255 015c 4424      		clr r4
 256               	.L22:
 257               	.LM53:
 258 015e 8A99      		sbic 49-32,2
 259 0160 5524      		clr r5
 260               	.L23:
 261               	.LM54:
 262 0162 8899      		sbic 49-32,0
 263 0164 00C0      		rjmp .L24
 264 0166 8A9B      		sbis 49-32,2
 265 0168 00C0      		rjmp .L25
 266               	.L24:
 267               	.LM55:
 268 016a 8091 0000 		lds r24,masterpinmask
 269 016e 0F2E      		mov __tmp_reg__,r31
 270 0170 FDEE      		ldi r31,lo8(-19)
 271 0172 8F2E      		mov r8,r31
 272 0174 F02D      		mov r31,__tmp_reg__
 273 0176 882A      		or r8,r24
 274 0178 00C0      		rjmp .L15
 275               	.L25:
 276               	.LM56:
 277 017a 8DEE      		ldi r24,lo8(-19)
 278 017c 882E      		mov r8,r24
 279               	.L15:
 280               	.LM57:
 281 017e 889B      		sbis 49-32,0
 282 0180 00C0      		rjmp .L26
 283               	/* #APP */
 284               	 ;  171 "firefly.c" 1
 285 0182 062C      		mov     __tmp_reg__, r6
 286 0184 27FA      		bst     r2, 7
 287 0186 420C      		add     r4, r2
 288 0188 03F0      		brvs    von_322
 289 018a 06F0      		brts    turnon_322
 290 018c 00C0      		rjmp    turnoff_322
 291               	von_322:
 292 018e 06F0      		brts    turnoff_322
 293               	turnon_322:
 294 0190 0094      		com     __tmp_reg__
 295 0192 8020      		and     r8, __tmp_reg__
GAS LISTING /var/folders/co/coknbUWaExmsbK3adiW3-++++TI/-Tmp-//ccwttGXi.s 			page 6


 296 0194 00C0      	rjmp    done_322
 297               	turnoff_322:
 298 0196 8028      		or      r8, __tmp_reg__
 299               		done_322:
 300               		
 301               	 ;  0 "" 2
 302               	/* #NOAPP */
 303               	.L26:
 304               	.LM58:
 305 0198 8A9B      		sbis 49-32,2
 306 019a 00C0      		rjmp .L27
 307               	/* #APP */
 308               	 ;  172 "firefly.c" 1
 309 019c 072C      		mov     __tmp_reg__, r7
 310 019e 37FA      		bst     r3, 7
 311 01a0 530C      		add     r5, r3
 312 01a2 03F0      		brvs    von_330
 313 01a4 06F0      		brts    turnon_330
 314 01a6 00C0      		rjmp    turnoff_330
 315               	von_330:
 316 01a8 06F0      		brts    turnoff_330
 317               	turnon_330:
 318 01aa 0094      		com     __tmp_reg__
 319 01ac 8020      		and     r8, __tmp_reg__
 320 01ae 00C0      	rjmp    done_330
 321               	turnoff_330:
 322 01b0 8028      		or      r8, __tmp_reg__
 323               		done_330:
 324               		
 325               	 ;  0 "" 2
 326               	/* #NOAPP */
 327               	.L27:
 328               	/* epilogue start */
 329               	.LM59:
 330 01b2 8F91      		pop r24
 331 01b4 0F90      		pop r0
 332 01b6 0FBE      		out __SREG__,r0
 333 01b8 0F90      		pop r0
 334 01ba 1F90      		pop __zero_reg__
 335 01bc 1895      		reti
 336               	.LFE3:
 338               	.global	showbootup
 340               	showbootup:
 341               	.LFB5:
 342               	.LM60:
 343 01be 0F93      		push r16
 344 01c0 1F93      		push r17
 345 01c2 CF93      		push r28
 346 01c4 DF93      		push r29
 347               	/* prologue: function */
 348               	/* frame size = 0 */
 349               	.LM61:
 350 01c6 4091 0000 		lds r20,bootsongs
 351 01ca 5091 0000 		lds r21,(bootsongs)+1
 352               	.LVL2:
 353               	.LM62:
 354               	/* #APP */
GAS LISTING /var/folders/co/coknbUWaExmsbK3adiW3-++++TI/-Tmp-//ccwttGXi.s 			page 7


 355               	 ;  231 "firefly.c" 1
 356 01ce F894      		cli
 357               	 ;  0 "" 2
 358               	.LM63:
 359               	/* #NOAPP */
 360 01d0 82E0      		ldi r24,lo8(2)
 361 01d2 8093 0000 		sts ch1restcount,r24
 362               	.LM64:
 363 01d6 899A      		sbi 49-32,1
 364               	.LM65:
 365               	/* #APP */
 366               	 ;  234 "firefly.c" 1
 367 01d8 7894      		sei
 368               	 ;  0 "" 2
 369               	.LM66:
 370               	/* #NOAPP */
 371 01da FA01      		movw r30,r20
 372 01dc 6081      		ld r22,Z
 373 01de 7181      		ldd r23,Z+1
 374 01e0 C0E0      		ldi r28,lo8(masterpins.1519)
 375 01e2 D0E0      		ldi r29,hi8(masterpins.1519)
 376               	.LVL3:
 377               	.L34:
 378               	.LM67:
 379 01e4 8881      		ld r24,Y
 380 01e6 8093 0000 		sts masterpinmask,r24
 381 01ea A0E0      		ldi r26,lo8(ch1pins.1520)
 382 01ec B0E0      		ldi r27,hi8(ch1pins.1520)
 383               	.LVL4:
 384               	.L33:
 385               	.LM68:
 386 01ee 9C91      		ld r25,X
 387 01f0 20E0      		ldi r18,lo8(0)
 388 01f2 30E0      		ldi r19,hi8(0)
 389 01f4 00C0      		rjmp .L29
 390               	.L32:
 391               	.LBB17:
 392               	.LM69:
 393 01f6 FA01      		movw r30,r20
 394 01f8 0281      		ldd r16,Z+2
 395 01fa 1381      		ldd r17,Z+3
 396 01fc 020F      		add r16,r18
 397 01fe 131F      		adc r17,r19
 398 0200 F801      		movw r30,r16
 399               	/* #APP */
 400               	 ;  243 "firefly.c" 1
 401 0202 8491      		lpm r24, Z
 402               		
 403               	 ;  0 "" 2
 404               	/* #NOAPP */
 405               	.LBE17:
 406 0204 8093 0000 		sts ch1nextnote,r24
 407               	.LM70:
 408 0208 8E9A      		sbi 49-32,6
 409 020a 00C0      		rjmp .L30
 410               	.L31:
 411               	.LM71:
GAS LISTING /var/folders/co/coknbUWaExmsbK3adiW3-++++TI/-Tmp-//ccwttGXi.s 			page 8


 412 020c 81B5      		in r24,65-32
 413               	.LVL5:
 414 020e 8064      		ori r24,lo8(64)
 415 0210 81BD      		out 65-32,r24
 416               	.LM72:
 417 0212 85B7      		in r24,85-32
 418 0214 877E      		andi r24,lo8(-25)
 419 0216 85BF      		out 85-32,r24
 420               	.LM73:
 421 0218 85B7      		in r24,85-32
 422 021a 8062      		ori r24,lo8(32)
 423 021c 85BF      		out 85-32,r24
 424               	/* #APP */
 425               	 ;  249 "firefly.c" 1
 426 021e 8895      		sleep
 427               		
 428               	 ;  0 "" 2
 429               	/* #NOAPP */
 430 0220 85B7      		in r24,85-32
 431 0222 8F7D      		andi r24,lo8(-33)
 432 0224 85BF      		out 85-32,r24
 433               	.LVL6:
 434               	.L30:
 435               	.LM74:
 436 0226 8E99      		sbic 49-32,6
 437 0228 00C0      		rjmp .L31
 438               	.LM75:
 439 022a 2E5F      		subi r18,lo8(-(2))
 440 022c 3F4F      		sbci r19,hi8(-(2))
 441               	.L29:
 442 022e 2617      		cp r18,r22
 443 0230 3707      		cpc r19,r23
 444 0232 00F0      		brlo .L32
 445 0234 1196      		adiw r26,1
 446               	.LM76:
 447 0236 F0E0      		ldi r31,hi8(ch1pins.1520+3)
 448 0238 A030      		cpi r26,lo8(ch1pins.1520+3)
 449 023a BF07      		cpc r27,r31
 450 023c 01F4      		brne .L33
 451 023e 2196      		adiw r28,1
 452               	.LM77:
 453 0240 80E0      		ldi r24,hi8(masterpins.1519+2)
 454 0242 C030      		cpi r28,lo8(masterpins.1519+2)
 455 0244 D807      		cpc r29,r24
 456               	.LVL7:
 457 0246 01F4      		brne .L34
 458 0248 692E      		mov r6,r25
 459               	.LM78:
 460               	/* #APP */
 461               	 ;  255 "firefly.c" 1
 462 024a F894      		cli
 463               	 ;  0 "" 2
 464               	.LM79:
 465               	/* #NOAPP */
 466 024c 81E0      		ldi r24,lo8(1)
 467 024e 8093 0000 		sts ch1restcount,r24
 468               	.LM80:
GAS LISTING /var/folders/co/coknbUWaExmsbK3adiW3-++++TI/-Tmp-//ccwttGXi.s 			page 9


 469               	/* #APP */
 470               	 ;  257 "firefly.c" 1
 471 0252 7894      		sei
 472               	 ;  0 "" 2
 473               	/* #NOAPP */
 474 0254 00C0      		rjmp .L35
 475               	.L36:
 476               	.LM81:
 477 0256 81B5      		in r24,65-32
 478 0258 8064      		ori r24,lo8(64)
 479 025a 81BD      		out 65-32,r24
 480               	.LM82:
 481 025c 85B7      		in r24,85-32
 482 025e 877E      		andi r24,lo8(-25)
 483 0260 85BF      		out 85-32,r24
 484               	.LM83:
 485 0262 85B7      		in r24,85-32
 486 0264 8062      		ori r24,lo8(32)
 487 0266 85BF      		out 85-32,r24
 488               	/* #APP */
 489               	 ;  262 "firefly.c" 1
 490 0268 8895      		sleep
 491               		
 492               	 ;  0 "" 2
 493               	/* #NOAPP */
 494 026a 85B7      		in r24,85-32
 495 026c 8F7D      		andi r24,lo8(-33)
 496 026e 85BF      		out 85-32,r24
 497               	.L35:
 498               	.LM84:
 499 0270 8899      		sbic 49-32,0
 500 0272 00C0      		rjmp .L36
 501               	/* epilogue start */
 502               	.LM85:
 503 0274 DF91      		pop r29
 504 0276 CF91      		pop r28
 505 0278 1F91      		pop r17
 506 027a 0F91      		pop r16
 507 027c 0895      		ret
 508               	.LFE5:
 510               	.global	randbits
 512               	randbits:
 513               	.LFB10:
 514               	.LM86:
 515               	.LVL8:
 516               	/* prologue: function */
 517               	/* frame size = 0 */
 518 027e E82F      		mov r30,r24
 519               	.LM87:
 520 0280 8091 0000 		lds r24,lfsr.1631
 521 0284 9091 0000 		lds r25,(lfsr.1631)+1
 522               	.LVL9:
 523 0288 0097      		sbiw r24,0
 524 028a 01F4      		brne .L41
 525               	.LM88:
 526 028c 9DEE      		ldi r25,lo8(-19)
 527 028e 82E1      		ldi r24,lo8(18)
GAS LISTING /var/folders/co/coknbUWaExmsbK3adiW3-++++TI/-Tmp-//ccwttGXi.s 			page 10


 528               	.L46:
 529 0290 98BB      		out 56-32,r25
 530 0292 88BB      		out 56-32,r24
 531 0294 00C0      		rjmp .L46
 532               	.L41:
 533 0296 9C01      		movw r18,r24
 534 0298 220F      		lsl r18
 535 029a 331F      		rol r19
 536               	.LM89:
 537 029c 97FF      		sbrs r25,7
 538 029e 00C0      		rjmp .L47
 539               	.L43:
 540               	.LM90:
 541 02a0 87E8      		ldi r24,lo8(7559)
 542 02a2 9DE1      		ldi r25,hi8(7559)
 543 02a4 2827      		eor r18,r24
 544 02a6 3927      		eor r19,r25
 545               	.L47:
 546 02a8 3093 0000 		sts (lfsr.1631)+1,r19
 547 02ac 2093 0000 		sts lfsr.1631,r18
 548               	.LBB18:
 549               	.LM91:
 550 02b0 F0E0      		ldi r31,lo8(0)
 551               	.LVL10:
 552 02b2 E050      		subi r30,lo8(-(bitmasks))
 553 02b4 F040      		sbci r31,hi8(-(bitmasks))
 554               	.LVL11:
 555               	/* #APP */
 556               	 ;  351 "firefly.c" 1
 557 02b6 E491      		lpm r30, Z
 558               		
 559               	 ;  0 "" 2
 560               	.LVL12:
 561               	/* #NOAPP */
 562 02b8 8091 0000 		lds r24,lfsr.1631
 563               	.LBE18:
 564               	.LM92:
 565 02bc 8E23      		and r24,r30
 566               	/* epilogue start */
 567 02be 0895      		ret
 568               	.LFE10:
 570               	.global	pickmaster
 572               	pickmaster:
 573               	.LFB9:
 574               	.LM93:
 575               	/* prologue: function */
 576               	/* frame size = 0 */
 577               	.LM94:
 578 02c0 83E0      		ldi r24,lo8(3)
 579 02c2 00D0      		rcall randbits
 580 02c4 9091 0000 		lds r25,ticker.1618
 581 02c8 8823      		tst r24
 582 02ca 01F4      		brne .L49
 583               	.LM95:
 584 02cc 90FF      		sbrs r25,0
 585 02ce 00C0      		rjmp .L51
 586 02d0 00C0      		rjmp .L50
GAS LISTING /var/folders/co/coknbUWaExmsbK3adiW3-++++TI/-Tmp-//ccwttGXi.s 			page 11


 587               	.L49:
 588               	.LM96:
 589 02d2 892F      		mov r24,r25
 590 02d4 8F5F      		subi r24,lo8(-(1))
 591 02d6 8093 0000 		sts ticker.1618,r24
 592 02da 80FD      		sbrc r24,0
 593 02dc 00C0      		rjmp .L50
 594               	.L51:
 595 02de 82E0      		ldi r24,lo8(2)
 596 02e0 0895      		ret
 597               	.L50:
 598 02e2 80E1      		ldi r24,lo8(16)
 599               	.LM97:
 600 02e4 0895      		ret
 601               	.LFE9:
 603               	.global	pickapin
 605               	pickapin:
 606               	.LFB8:
 607               	.LM98:
 608               	.LVL13:
 609 02e6 1F93      		push r17
 610               	/* prologue: function */
 611               	/* frame size = 0 */
 612 02e8 182F      		mov r17,r24
 613               	.LM99:
 614 02ea 88E0      		ldi r24,lo8(8)
 615               	.LVL14:
 616 02ec 00D0      		rcall randbits
 617               	.LM100:
 618 02ee 90E0      		ldi r25,lo8(0)
 619               	.LM101:
 620 02f0 9C01      		movw r18,r24
 621 02f2 220F      		lsl r18
 622 02f4 331F      		rol r19
 623 02f6 280F      		add r18,r24
 624 02f8 391F      		adc r19,r25
 625 02fa 3130      		cpi r19,lo8(1)
 626 02fc 01F0      		breq .L57
 627 02fe 3130      		cpi r19,lo8(1)
 628 0300 00F0      		brlo .L56
 629 0302 3230      		cpi r19,lo8(2)
 630 0304 01F4      		brne .L55
 631 0306 00C0      		rjmp .L63
 632               	.L56:
 633               	.LM102:
 634 0308 1830      		cpi r17,lo8(8)
 635 030a 01F4      		brne .L55
 636 030c 00C0      		rjmp .L59
 637               	.L57:
 638               	.LM103:
 639 030e 1430      		cpi r17,lo8(4)
 640 0310 01F4      		brne .L59
 641 0312 00C0      		rjmp .L60
 642               	.L63:
 643               	.LM104:
 644 0314 1130      		cpi r17,lo8(1)
 645 0316 01F4      		brne .L60
GAS LISTING /var/folders/co/coknbUWaExmsbK3adiW3-++++TI/-Tmp-//ccwttGXi.s 			page 12


 646               	.L55:
 647 0318 88E0      		ldi r24,lo8(8)
 648               	.LVL15:
 649 031a 00C0      		rjmp .L61
 650               	.LVL16:
 651               	.L59:
 652 031c 84E0      		ldi r24,lo8(4)
 653               	.LVL17:
 654 031e 00C0      		rjmp .L61
 655               	.LVL18:
 656               	.L60:
 657 0320 81E0      		ldi r24,lo8(1)
 658               	.LVL19:
 659               	.L61:
 660               	.LVL20:
 661               	/* epilogue start */
 662               	.LM105:
 663 0322 1F91      		pop r17
 664               	.LVL21:
 665 0324 0895      		ret
 666               	.LFE8:
 668               	.global	randscaleval
 670               	randscaleval:
 671               	.LFB7:
 672               	.LM106:
 673 0326 EF92      		push r14
 674 0328 FF92      		push r15
 675 032a 0F93      		push r16
 676 032c 1F93      		push r17
 677               	/* prologue: function */
 678               	/* frame size = 0 */
 679               	.LM107:
 680 032e 86E0      		ldi r24,lo8(6)
 681 0330 00D0      		rcall randbits
 682 0332 182F      		mov r17,r24
 683 0334 85E0      		ldi r24,lo8(5)
 684 0336 00D0      		rcall randbits
 685 0338 E82E      		mov r14,r24
 686 033a 84E0      		ldi r24,lo8(4)
 687 033c 00D0      		rcall randbits
 688 033e F82E      		mov r15,r24
 689 0340 83E0      		ldi r24,lo8(3)
 690 0342 00D0      		rcall randbits
 691 0344 082F      		mov r16,r24
 692 0346 82E0      		ldi r24,lo8(2)
 693 0348 00D0      		rcall randbits
 694 034a 1E0D      		add r17,r14
 695 034c 165C      		subi r17,lo8(-(58))
 696 034e 1F0D      		add r17,r15
 697 0350 100F      		add r17,r16
 698               	.LM108:
 699 0352 810F      		add r24,r17
 700               	/* epilogue start */
 701 0354 1F91      		pop r17
 702 0356 0F91      		pop r16
 703 0358 FF90      		pop r15
 704 035a EF90      		pop r14
GAS LISTING /var/folders/co/coknbUWaExmsbK3adiW3-++++TI/-Tmp-//ccwttGXi.s 			page 13


 705 035c 0895      		ret
 706               	.LFE7:
 708               	.global	randwaitval
 710               	randwaitval:
 711               	.LFB6:
 712               	.LM109:
 713 035e CF92      		push r12
 714 0360 DF92      		push r13
 715 0362 EF92      		push r14
 716 0364 FF92      		push r15
 717 0366 0F93      		push r16
 718 0368 1F93      		push r17
 719               	/* prologue: function */
 720               	/* frame size = 0 */
 721               	.LM110:
 722 036a C090 0000 		lds r12,mood
 723 036e 84E0      		ldi r24,lo8(4)
 724 0370 00D0      		rcall randbits
 725 0372 182F      		mov r17,r24
 726 0374 84E0      		ldi r24,lo8(4)
 727 0376 00D0      		rcall randbits
 728 0378 D82E      		mov r13,r24
 729 037a 83E0      		ldi r24,lo8(3)
 730 037c 00D0      		rcall randbits
 731 037e E82E      		mov r14,r24
 732 0380 82E0      		ldi r24,lo8(2)
 733 0382 00D0      		rcall randbits
 734 0384 F82E      		mov r15,r24
 735 0386 82E0      		ldi r24,lo8(2)
 736 0388 00D0      		rcall randbits
 737 038a 082F      		mov r16,r24
 738 038c 83E0      		ldi r24,lo8(3)
 739 038e 00D0      		rcall randbits
 740 0390 1D0D      		add r17,r13
 741 0392 1C0D      		add r17,r12
 742 0394 1E0D      		add r17,r14
 743 0396 1F0D      		add r17,r15
 744 0398 100F      		add r17,r16
 745               	.LM111:
 746 039a 181B      		sub r17,r24
 747 039c 812F      		mov r24,r17
 748               	/* epilogue start */
 749 039e 1F91      		pop r17
 750 03a0 0F91      		pop r16
 751 03a2 FF90      		pop r15
 752 03a4 EF90      		pop r14
 753 03a6 DF90      		pop r13
 754 03a8 CF90      		pop r12
 755 03aa 0895      		ret
 756               	.LFE6:
 758               	.global	pickasong
 760               	pickasong:
 761               	.LFB11:
 762               	.LM112:
 763               	/* prologue: function */
 764               	/* frame size = 0 */
 765               	.LM113:
GAS LISTING /var/folders/co/coknbUWaExmsbK3adiW3-++++TI/-Tmp-//ccwttGXi.s 			page 14


 766 03ac 88E0      		ldi r24,lo8(8)
 767 03ae 00D0      		rcall randbits
 768 03b0 E82F      		mov r30,r24
 769 03b2 F0E0      		ldi r31,lo8(0)
 770 03b4 74E0      		ldi r23,4
 771 03b6 F695      	1:	lsr r31
 772 03b8 E795      		ror r30
 773 03ba 7A95      		dec r23
 774 03bc 01F4      		brne 1b
 775 03be EE0F      		lsl r30
 776 03c0 FF1F      		rol r31
 777 03c2 E050      		subi r30,lo8(-(songs))
 778 03c4 F040      		sbci r31,hi8(-(songs))
 779               	.LM114:
 780 03c6 8081      		ld r24,Z
 781 03c8 9181      		ldd r25,Z+1
 782               	/* epilogue start */
 783 03ca 0895      		ret
 784               	.LFE11:
 786               	.global	lighted_fireflies
 788               	lighted_fireflies:
 789               	.LFB15:
 790               	.LM115:
 791 03cc EF92      		push r14
 792 03ce FF92      		push r15
 793 03d0 0F93      		push r16
 794 03d2 1F93      		push r17
 795 03d4 CF93      		push r28
 796 03d6 DF93      		push r29
 797               	/* prologue: function */
 798               	/* frame size = 0 */
 799               	.LM116:
 800 03d8 1091 0000 		lds r17,temp.1722
 801 03dc C091 0000 		lds r28,ch1noteptr.1720
 802 03e0 D091 0000 		lds r29,(ch1noteptr.1720)+1
 803               	.LM117:
 804 03e4 E8E5      		ldi r30,lo8(600)
 805 03e6 EE2E      		mov r14,r30
 806 03e8 E2E0      		ldi r30,hi8(600)
 807 03ea FE2E      		mov r15,r30
 808 03ec 00C0      		rjmp .L85
 809               	.LVL22:
 810               	.L83:
 811               	.LM118:
 812 03ee 8899      		sbic 49-32,0
 813 03f0 00C0      		rjmp .L72
 814 03f2 8A9B      		sbis 49-32,2
 815 03f4 00C0      		rjmp .L73
 816               	.L72:
 817               	.LM119:
 818 03f6 889B      		sbis 49-32,0
 819 03f8 00C0      		rjmp .L74
 820 03fa 8E99      		sbic 49-32,6
 821 03fc 00C0      		rjmp .L74
 822               	.LM120:
 823 03fe E091 0000 		lds r30,ch1song.1718
 824 0402 F091 0000 		lds r31,(ch1song.1718)+1
GAS LISTING /var/folders/co/coknbUWaExmsbK3adiW3-++++TI/-Tmp-//ccwttGXi.s 			page 15


 825               	.LVL23:
 826 0406 8081      		ld r24,Z
 827 0408 9181      		ldd r25,Z+1
 828 040a C817      		cp r28,r24
 829 040c D907      		cpc r29,r25
 830 040e 01F0      		breq .L74
 831               	.LBB19:
 832               	.LM121:
 833 0410 0280      		ldd __tmp_reg__,Z+2
 834 0412 F381      		ldd r31,Z+3
 835 0414 E02D      		mov r30,__tmp_reg__
 836 0416 EC0F      		add r30,r28
 837 0418 FD1F      		adc r31,r29
 838 041a 2196      		adiw r28,1
 839               	/* #APP */
 840               	 ;  481 "firefly.c" 1
 841 041c E491      		lpm r30, Z
 842               		
 843               	 ;  0 "" 2
 844               	.LVL24:
 845               	/* #NOAPP */
 846               	.LBE19:
 847               	.LM122:
 848 041e 6091 0000 		lds r22,ch1scale
 849 0422 8E2F      		mov r24,r30
 850 0424 90E0      		ldi r25,lo8(0)
 851 0426 70E0      		ldi r23,lo8(0)
 852 0428 00D0      		rcall __mulhi3
 853 042a 192F      		mov r17,r25
 854               	.LM123:
 855               	/* #APP */
 856               	 ;  484 "firefly.c" 1
 857 042c F894      		cli
 858               	 ;  0 "" 2
 859               	.LM124:
 860               	/* #NOAPP */
 861 042e 9093 0000 		sts ch1nextnote,r25
 862               	.LM125:
 863 0432 8E9A      		sbi 49-32,6
 864               	.LM126:
 865               	/* #APP */
 866               	 ;  487 "firefly.c" 1
 867 0434 7894      		sei
 868               	 ;  0 "" 2
 869               	/* #NOAPP */
 870 0436 00C0      		rjmp .L85
 871               	.LVL25:
 872               	.L74:
 873               	.LM127:
 874 0438 8A9B      		sbis 49-32,2
 875 043a 00C0      		rjmp .L75
 876 043c 8F99      		sbic 49-32,7
 877 043e 00C0      		rjmp .L75
 878               	.LM128:
 879 0440 2091 0000 		lds r18,ch2noteptr.1721
 880 0444 3091 0000 		lds r19,(ch2noteptr.1721)+1
 881 0448 E091 0000 		lds r30,ch2song.1719
GAS LISTING /var/folders/co/coknbUWaExmsbK3adiW3-++++TI/-Tmp-//ccwttGXi.s 			page 16


 882 044c F091 0000 		lds r31,(ch2song.1719)+1
 883               	.LVL26:
 884 0450 8081      		ld r24,Z
 885 0452 9181      		ldd r25,Z+1
 886 0454 2817      		cp r18,r24
 887 0456 3907      		cpc r19,r25
 888 0458 01F0      		breq .L75
 889               	.LBB20:
 890               	.LM129:
 891 045a 0280      		ldd __tmp_reg__,Z+2
 892 045c F381      		ldd r31,Z+3
 893 045e E02D      		mov r30,__tmp_reg__
 894 0460 E20F      		add r30,r18
 895 0462 F31F      		adc r31,r19
 896 0464 2F5F      		subi r18,lo8(-(1))
 897 0466 3F4F      		sbci r19,hi8(-(1))
 898 0468 3093 0000 		sts (ch2noteptr.1721)+1,r19
 899 046c 2093 0000 		sts ch2noteptr.1721,r18
 900               	/* #APP */
 901               	 ;  495 "firefly.c" 1
 902 0470 E491      		lpm r30, Z
 903               		
 904               	 ;  0 "" 2
 905               	.LVL27:
 906               	/* #NOAPP */
 907               	.LBE20:
 908               	.LM130:
 909 0472 6091 0000 		lds r22,ch2scale
 910 0476 8E2F      		mov r24,r30
 911 0478 90E0      		ldi r25,lo8(0)
 912 047a 70E0      		ldi r23,lo8(0)
 913 047c 00D0      		rcall __mulhi3
 914 047e 192F      		mov r17,r25
 915               	.LM131:
 916               	/* #APP */
 917               	 ;  498 "firefly.c" 1
 918 0480 F894      		cli
 919               	 ;  0 "" 2
 920               	.LM132:
 921               	/* #NOAPP */
 922 0482 9093 0000 		sts ch2nextnote,r25
 923               	.LM133:
 924 0486 8F9A      		sbi 49-32,7
 925               	.LM134:
 926               	/* #APP */
 927               	 ;  501 "firefly.c" 1
 928 0488 7894      		sei
 929               	 ;  0 "" 2
 930               	/* #NOAPP */
 931 048a 00C0      		rjmp .L85
 932               	.LVL28:
 933               	.L75:
 934               	.LM135:
 935 048c 889B      		sbis 49-32,0
 936 048e 00C0      		rjmp .L76
 937 0490 8091 0000 		lds r24,ch1restcount
 938 0494 8823      		tst r24
GAS LISTING /var/folders/co/coknbUWaExmsbK3adiW3-++++TI/-Tmp-//ccwttGXi.s 			page 17


 939 0496 01F4      		brne .L76
 940               	.LM136:
 941 0498 00D0      		rcall randwaitval
 942               	.LVL29:
 943 049a 182F      		mov r17,r24
 944               	.LM137:
 945               	/* #APP */
 946               	 ;  512 "firefly.c" 1
 947 049c F894      		cli
 948               	 ;  0 "" 2
 949               	.LM138:
 950               	/* #NOAPP */
 951 049e 8093 0000 		sts ch1restcount,r24
 952               	.LM139:
 953               	/* #APP */
 954               	 ;  514 "firefly.c" 1
 955 04a2 7894      		sei
 956               	 ;  0 "" 2
 957               	/* #NOAPP */
 958 04a4 00C0      		rjmp .L85
 959               	.LVL30:
 960               	.L76:
 961               	.LM140:
 962 04a6 8A9B      		sbis 49-32,2
 963 04a8 00C0      		rjmp .L73
 964 04aa 8091 0000 		lds r24,ch2restcount
 965 04ae 8823      		tst r24
 966 04b0 01F4      		brne .L73
 967               	.LM141:
 968 04b2 00D0      		rcall randwaitval
 969               	.LVL31:
 970 04b4 182F      		mov r17,r24
 971               	.LM142:
 972               	/* #APP */
 973               	 ;  520 "firefly.c" 1
 974 04b6 F894      		cli
 975               	 ;  0 "" 2
 976               	.LM143:
 977               	/* #NOAPP */
 978 04b8 8093 0000 		sts ch2restcount,r24
 979               	.LM144:
 980               	/* #APP */
 981               	 ;  522 "firefly.c" 1
 982 04bc 7894      		sei
 983               	 ;  0 "" 2
 984               	/* #NOAPP */
 985 04be 00C0      		rjmp .L85
 986               	.LVL32:
 987               	.L73:
 988               	.LM145:
 989 04c0 8899      		sbic 49-32,0
 990 04c2 00C0      		rjmp .L77
 991 04c4 8999      		sbic 49-32,1
 992 04c6 00C0      		rjmp .L77
 993 04c8 8E99      		sbic 49-32,6
 994 04ca 00C0      		rjmp .L77
 995               	.LM146:
GAS LISTING /var/folders/co/coknbUWaExmsbK3adiW3-++++TI/-Tmp-//ccwttGXi.s 			page 18


 996 04cc 00D0      		rcall pickasong
 997               	.LVL33:
 998 04ce 9093 0000 		sts (ch1song.1718)+1,r25
 999 04d2 8093 0000 		sts ch1song.1718,r24
 1000               	.LM147:
 1001 04d6 872D      		mov r24,r7
 1002 04d8 00D0      		rcall pickapin
 1003 04da 682E      		mov r6,r24
 1004               	.LM148:
 1005 04dc 00D0      		rcall randscaleval
 1006 04de 8093 0000 		sts ch1scale,r24
 1007               	.LBB21:
 1008               	.LM149:
 1009 04e2 E091 0000 		lds r30,ch1song.1718
 1010 04e6 F091 0000 		lds r31,(ch1song.1718)+1
 1011 04ea 0280      		ldd __tmp_reg__,Z+2
 1012 04ec F381      		ldd r31,Z+3
 1013 04ee E02D      		mov r30,__tmp_reg__
 1014               	/* #APP */
 1015               	 ;  539 "firefly.c" 1
 1016 04f0 E491      		lpm r30, Z
 1017               		
 1018               	 ;  0 "" 2
 1019               	.LVL34:
 1020               	/* #NOAPP */
 1021               	.LBE21:
 1022               	.LM150:
 1023 04f2 6091 0000 		lds r22,ch1scale
 1024 04f6 8E2F      		mov r24,r30
 1025 04f8 90E0      		ldi r25,lo8(0)
 1026 04fa 70E0      		ldi r23,lo8(0)
 1027 04fc 00D0      		rcall __mulhi3
 1028 04fe 192F      		mov r17,r25
 1029 0500 092F      		mov r16,r25
 1030               	.LM151:
 1031 0502 8B9B      		sbis 49-32,3
 1032 0504 00C0      		rjmp .L78
 1033               	.LM152:
 1034 0506 00D0      		rcall pickmaster
 1035               	.LVL35:
 1036 0508 8093 0000 		sts masterpinmask,r24
 1037               	.LVL36:
 1038               	.L78:
 1039               	.LM153:
 1040               	/* #APP */
 1041               	 ;  547 "firefly.c" 1
 1042 050c F894      		cli
 1043               	 ;  0 "" 2
 1044               	.LM154:
 1045               	/* #NOAPP */
 1046 050e 0093 0000 		sts ch1nextnote,r16
 1047               	.LM155:
 1048 0512 8E9A      		sbi 49-32,6
 1049               	.LM156:
 1050               	/* #APP */
 1051               	 ;  550 "firefly.c" 1
 1052 0514 7894      		sei
GAS LISTING /var/folders/co/coknbUWaExmsbK3adiW3-++++TI/-Tmp-//ccwttGXi.s 			page 19


 1053               	 ;  0 "" 2
 1054               	/* #NOAPP */
 1055 0516 C1E0      		ldi r28,lo8(1)
 1056 0518 D0E0      		ldi r29,hi8(1)
 1057 051a 00C0      		rjmp .L85
 1058               	.LVL37:
 1059               	.L77:
 1060               	.LM157:
 1061 051c 8A99      		sbic 49-32,2
 1062 051e 00C0      		rjmp .L79
 1063 0520 8B99      		sbic 49-32,3
 1064 0522 00C0      		rjmp .L79
 1065 0524 8F99      		sbic 49-32,7
 1066 0526 00C0      		rjmp .L79
 1067               	.LM158:
 1068 0528 00D0      		rcall pickasong
 1069               	.LVL38:
 1070 052a 9093 0000 		sts (ch2song.1719)+1,r25
 1071 052e 8093 0000 		sts ch2song.1719,r24
 1072               	.LM159:
 1073 0532 1092 0000 		sts (ch2noteptr.1721)+1,__zero_reg__
 1074 0536 1092 0000 		sts ch2noteptr.1721,__zero_reg__
 1075               	.LM160:
 1076 053a 862D      		mov r24,r6
 1077 053c 00D0      		rcall pickapin
 1078 053e 782E      		mov r7,r24
 1079               	.LM161:
 1080 0540 00D0      		rcall randscaleval
 1081 0542 8093 0000 		sts ch2scale,r24
 1082               	.LBB22:
 1083               	.LM162:
 1084 0546 8091 0000 		lds r24,ch2noteptr.1721
 1085 054a 9091 0000 		lds r25,(ch2noteptr.1721)+1
 1086 054e E091 0000 		lds r30,ch2song.1719
 1087 0552 F091 0000 		lds r31,(ch2song.1719)+1
 1088 0556 0280      		ldd __tmp_reg__,Z+2
 1089 0558 F381      		ldd r31,Z+3
 1090 055a E02D      		mov r30,__tmp_reg__
 1091 055c E80F      		add r30,r24
 1092 055e F91F      		adc r31,r25
 1093 0560 0196      		adiw r24,1
 1094 0562 9093 0000 		sts (ch2noteptr.1721)+1,r25
 1095 0566 8093 0000 		sts ch2noteptr.1721,r24
 1096               	/* #APP */
 1097               	 ;  565 "firefly.c" 1
 1098 056a E491      		lpm r30, Z
 1099               		
 1100               	 ;  0 "" 2
 1101               	.LVL39:
 1102               	/* #NOAPP */
 1103               	.LBE22:
 1104               	.LM163:
 1105 056c 6091 0000 		lds r22,ch2scale
 1106 0570 8E2F      		mov r24,r30
 1107 0572 90E0      		ldi r25,lo8(0)
 1108 0574 70E0      		ldi r23,lo8(0)
 1109 0576 00D0      		rcall __mulhi3
GAS LISTING /var/folders/co/coknbUWaExmsbK3adiW3-++++TI/-Tmp-//ccwttGXi.s 			page 20


 1110 0578 192F      		mov r17,r25
 1111 057a 092F      		mov r16,r25
 1112               	.LM164:
 1113 057c 899B      		sbis 49-32,1
 1114 057e 00C0      		rjmp .L80
 1115               	.LM165:
 1116 0580 00D0      		rcall pickmaster
 1117               	.LVL40:
 1118 0582 8093 0000 		sts masterpinmask,r24
 1119               	.LVL41:
 1120               	.L80:
 1121               	.LM166:
 1122               	/* #APP */
 1123               	 ;  573 "firefly.c" 1
 1124 0586 F894      		cli
 1125               	 ;  0 "" 2
 1126               	.LM167:
 1127               	/* #NOAPP */
 1128 0588 0093 0000 		sts ch2nextnote,r16
 1129               	.LM168:
 1130 058c 8F9A      		sbi 49-32,7
 1131               	.LM169:
 1132               	/* #APP */
 1133               	 ;  576 "firefly.c" 1
 1134 058e 7894      		sei
 1135               	 ;  0 "" 2
 1136               	/* #NOAPP */
 1137 0590 00C0      		rjmp .L85
 1138               	.LVL42:
 1139               	.L79:
 1140               	.LM170:
 1141 0592 8C9B      		sbis 49-32,4
 1142 0594 00C0      		rjmp .L81
 1143               	.LM171:
 1144 0596 85E0      		ldi r24,lo8(5)
 1145 0598 00D0      		rcall randbits
 1146               	.LVL43:
 1147 059a 885F      		subi r24,lo8(-(8))
 1148 059c 8093 0000 		sts mood,r24
 1149               	.LM172:
 1150 05a0 F092 0000 		sts (mood_count)+1,r15
 1151 05a4 E092 0000 		sts mood_count,r14
 1152               	.LM173:
 1153 05a8 8C98      		cbi 49-32,4
 1154 05aa 00C0      		rjmp .L85
 1155               	.LVL44:
 1156               	.L81:
 1157               	.LM174:
 1158 05ac 81B5      		in r24,65-32
 1159 05ae 8064      		ori r24,lo8(64)
 1160 05b0 81BD      		out 65-32,r24
 1161               	.LM175:
 1162 05b2 899B      		sbis 49-32,1
 1163 05b4 00C0      		rjmp .L82
 1164 05b6 8B9B      		sbis 49-32,3
 1165 05b8 00C0      		rjmp .L82
 1166               	.LM176:
GAS LISTING /var/folders/co/coknbUWaExmsbK3adiW3-++++TI/-Tmp-//ccwttGXi.s 			page 21


 1167 05ba 85B7      		in r24,85-32
 1168 05bc 877E      		andi r24,lo8(-25)
 1169 05be 8061      		ori r24,lo8(16)
 1170 05c0 85BF      		out 85-32,r24
 1171               	.LM177:
 1172 05c2 85B7      		in r24,85-32
 1173 05c4 8062      		ori r24,lo8(32)
 1174 05c6 85BF      		out 85-32,r24
 1175               	/* #APP */
 1176               	 ;  600 "firefly.c" 1
 1177 05c8 8895      		sleep
 1178               		
 1179               	 ;  0 "" 2
 1180               	/* #NOAPP */
 1181 05ca 00C0      		rjmp .L86
 1182               	.L82:
 1183               	.LM178:
 1184 05cc 85B7      		in r24,85-32
 1185 05ce 877E      		andi r24,lo8(-25)
 1186 05d0 85BF      		out 85-32,r24
 1187               	.LM179:
 1188 05d2 85B7      		in r24,85-32
 1189 05d4 8062      		ori r24,lo8(32)
 1190 05d6 85BF      		out 85-32,r24
 1191               	/* #APP */
 1192               	 ;  604 "firefly.c" 1
 1193 05d8 8895      		sleep
 1194               		
 1195               	 ;  0 "" 2
 1196               	/* #NOAPP */
 1197               	.L86:
 1198 05da 85B7      		in r24,85-32
 1199 05dc 8F7D      		andi r24,lo8(-33)
 1200 05de 85BF      		out 85-32,r24
 1201               	.L85:
 1202               	.LM180:
 1203 05e0 8091 0000 		lds r24,is_dark
 1204 05e4 8823      		tst r24
 1205 05e6 01F0      		breq .+2
 1206 05e8 00C0      		rjmp .L83
 1207 05ea 1093 0000 		sts temp.1722,r17
 1208 05ee D093 0000 		sts (ch1noteptr.1720)+1,r29
 1209 05f2 C093 0000 		sts ch1noteptr.1720,r28
 1210               	/* epilogue start */
 1211               	.LM181:
 1212 05f6 DF91      		pop r29
 1213 05f8 CF91      		pop r28
 1214 05fa 1F91      		pop r17
 1215 05fc 0F91      		pop r16
 1216 05fe FF90      		pop r15
 1217 0600 EF90      		pop r14
 1218 0602 0895      		ret
 1219               	.LFE15:
 1221               	.global	main
 1223               	main:
 1224               	.LFB16:
 1225               	.LM182:
GAS LISTING /var/folders/co/coknbUWaExmsbK3adiW3-++++TI/-Tmp-//ccwttGXi.s 			page 22


 1226 0604 0F93      		push r16
 1227 0606 1F93      		push r17
 1228               	/* prologue: function */
 1229               	/* frame size = 0 */
 1230               	.LBB23:
 1231               	.LBB24:
 1232               	.LM183:
 1233 0608 2DE0      		ldi r18,lo8(13)
 1234 060a 88E1      		ldi r24,lo8(24)
 1235 060c 90E0      		ldi r25,hi8(24)
 1236               	/* #APP */
 1237               	 ;  183 "firefly.c" 1
 1238 060e 0FB6      		in __tmp_reg__,__SREG__
 1239 0610 F894      		cli
 1240 0612 A895      		wdr
 1241 0614 81BD      		out 33,r24
 1242 0616 0FBE      		out __SREG__,__tmp_reg__
 1243 0618 21BD      		out 33,r18
 1244               	 ;  0 "" 2
 1245               	.LM184:
 1246               	/* #NOAPP */
 1247 061a 81B5      		in r24,65-32
 1248 061c 8064      		ori r24,lo8(64)
 1249 061e 81BD      		out 65-32,r24
 1250               	.LM185:
 1251 0620 8FEF      		ldi r24,lo8(-1)
 1252 0622 87BB      		out 55-32,r24
 1253               	.LM186:
 1254 0624 8DEE      		ldi r24,lo8(-19)
 1255 0626 88BB      		out 56-32,r24
 1256               	.LM187:
 1257 0628 80B5      		in r24,64-32
 1258 062a 8860      		ori r24,lo8(8)
 1259 062c 80BD      		out 64-32,r24
 1260               	.LM188:
 1261 062e 80B5      		in r24,64-32
 1262 0630 8260      		ori r24,lo8(2)
 1263 0632 80BD      		out 64-32,r24
 1264               	.LM189:
 1265 0634 80B5      		in r24,64-32
 1266 0636 8160      		ori r24,lo8(1)
 1267 0638 80BD      		out 64-32,r24
 1268               	.LM190:
 1269 063a 82E0      		ldi r24,lo8(2)
 1270 063c 8ABD      		out 74-32,r24
 1271               	.LM191:
 1272 063e 83BF      		out 83-32,r24
 1273               	.LM192:
 1274 0640 89E1      		ldi r24,lo8(25)
 1275 0642 89BD      		out 73-32,r24
 1276               	.LBB25:
 1277               	.LM193:
 1278 0644 82E0      		ldi r24,lo8(2)
 1279 0646 90E0      		ldi r25,hi8(2)
 1280 0648 20E8      		ldi r18,lo8(-128)
 1281               	/* #APP */
 1282               	 ;  212 "firefly.c" 1
GAS LISTING /var/folders/co/coknbUWaExmsbK3adiW3-++++TI/-Tmp-//ccwttGXi.s 			page 23


 1283 064a 0FB6      		in __tmp_reg__,__SREG__
 1284 064c F894      		cli
 1285 064e 26BD      		out 38, r18
 1286 0650 86BD      		out 38, r24
 1287 0652 0FBE      		out __SREG__, __tmp_reg__
 1288               	 ;  0 "" 2
 1289               	/* #NOAPP */
 1290               	.LBE25:
 1291               	.LM194:
 1292 0654 80E1      		ldi r24,lo8(16)
 1293 0656 89BF      		out 89-32,r24
 1294               	.LM195:
 1295 0658 81B5      		in r24,65-32
 1296 065a 8064      		ori r24,lo8(64)
 1297 065c 81BD      		out 65-32,r24
 1298               	.LBE24:
 1299               	.LBE23:
 1300               	.LM196:
 1301 065e 8824      		clr r8
 1302 0660 7724      		clr r7
 1303 0662 6624      		clr r6
 1304 0664 5524      		clr r5
 1305 0666 4424      		clr r4
 1306 0668 3324      		clr r3
 1307 066a 2224      		clr r2
 1308               	.LM197:
 1309 066c 00D0      		rcall randwaitval
 1310 066e 8093 0000 		sts ch1restcount,r24
 1311               	.LM198:
 1312 0672 00D0      		rcall randwaitval
 1313 0674 8093 0000 		sts ch2restcount,r24
 1314               	.LM199:
 1315 0678 11BA      		out 49-32,__zero_reg__
 1316               	.LM200:
 1317 067a 1092 0000 		sts waiting_for_dark,__zero_reg__
 1318               	.LM201:
 1319 067e 81E0      		ldi r24,lo8(1)
 1320 0680 8093 0000 		sts is_dark,r24
 1321               	.LM202:
 1322 0684 8093 0000 		sts force_dark,r24
 1323               	.LM203:
 1324               	/* #APP */
 1325               	 ;  628 "firefly.c" 1
 1326 0688 7894      		sei
 1327               	 ;  0 "" 2
 1328               	.LM204:
 1329               	/* #NOAPP */
 1330 068a 00D0      		rcall showbootup
 1331               	.LM205:
 1332 068c 1092 0000 		sts force_dark,__zero_reg__
 1333               	.LBB26:
 1334               	.LBB27:
 1335               	.LM206:
 1336 0690 01E0      		ldi r16,lo8(1)
 1337               	.LM207:
 1338 0692 10E1      		ldi r17,lo8(16)
 1339               	.L90:
GAS LISTING /var/folders/co/coknbUWaExmsbK3adiW3-++++TI/-Tmp-//ccwttGXi.s 			page 24


 1340               	.LM208:
 1341 0694 0093 0000 		sts waiting_for_dark,r16
 1342               	.LM209:
 1343 0698 19BE      		out 89-32,__zero_reg__
 1344 069a 00C0      		rjmp .L88
 1345               	.L89:
 1346               	.LM210:
 1347 069c 81B5      		in r24,65-32
 1348 069e 8064      		ori r24,lo8(64)
 1349 06a0 81BD      		out 65-32,r24
 1350               	.LM211:
 1351 06a2 85B7      		in r24,85-32
 1352 06a4 877E      		andi r24,lo8(-25)
 1353 06a6 8061      		ori r24,lo8(16)
 1354 06a8 85BF      		out 85-32,r24
 1355               	.LM212:
 1356 06aa 85B7      		in r24,85-32
 1357 06ac 8062      		ori r24,lo8(32)
 1358 06ae 85BF      		out 85-32,r24
 1359               	/* #APP */
 1360               	 ;  439 "firefly.c" 1
 1361 06b0 8895      		sleep
 1362               		
 1363               	 ;  0 "" 2
 1364               	/* #NOAPP */
 1365 06b2 85B7      		in r24,85-32
 1366 06b4 8F7D      		andi r24,lo8(-33)
 1367 06b6 85BF      		out 85-32,r24
 1368               	.L88:
 1369               	.LM213:
 1370 06b8 8091 0000 		lds r24,is_dark
 1371 06bc 8823      		tst r24
 1372 06be 01F0      		breq .L89
 1373               	.LM214:
 1374 06c0 19BF      		out 89-32,r17
 1375               	.LM215:
 1376 06c2 1092 0000 		sts waiting_for_dark,__zero_reg__
 1377               	.LBE27:
 1378               	.LBE26:
 1379               	.LM216:
 1380 06c6 8824      		clr r8
 1381 06c8 7724      		clr r7
 1382 06ca 6624      		clr r6
 1383 06cc 5524      		clr r5
 1384 06ce 4424      		clr r4
 1385 06d0 3324      		clr r3
 1386 06d2 2224      		clr r2
 1387               	.LM217:
 1388 06d4 11BA      		out 49-32,__zero_reg__
 1389               	.LM218:
 1390 06d6 899A      		sbi 49-32,1
 1391               	.LM219:
 1392 06d8 8B9A      		sbi 49-32,3
 1393               	.LM220:
 1394 06da 00D0      		rcall lighted_fireflies
 1395 06dc 00C0      		rjmp .L90
 1396               	.LFE16:
GAS LISTING /var/folders/co/coknbUWaExmsbK3adiW3-++++TI/-Tmp-//ccwttGXi.s 			page 25


 1398               	.global	bootsongnotes
 1399               		.section	.progmem.data,"a",@progbits
 1402               	bootsongnotes:
 1403 0000 00        		.byte	0
 1404 0001 04        		.byte	4
 1405 0002 09        		.byte	9
 1406 0003 10        		.byte	16
 1407 0004 18        		.byte	24
 1408 0005 21        		.byte	33
 1409 0006 29        		.byte	41
 1410 0007 2F        		.byte	47
 1411 0008 32        		.byte	50
 1412 0009 31        		.byte	49
 1413 000a 2C        		.byte	44
 1414 000b 23        		.byte	35
 1415 000c 1A        		.byte	26
 1416 000d 11        		.byte	17
 1417 000e 0A        		.byte	10
 1418 000f 05        		.byte	5
 1419 0010 01        		.byte	1
 1420 0011 00        		.byte	0
 1421 0012 00        		.byte	0
 1422               	.global	bootsong
 1423               		.data
 1426               	bootsong:
 1427 0000 1300      		.word	19
 1428 0002 0000      		.word	bootsongnotes
 1429               	.global	song2anotes
 1430               		.section	.progmem.data
 1433               	song2anotes:
 1434 0013 02        		.byte	2
 1435 0014 1D        		.byte	29
 1436 0015 51        		.byte	81
 1437 0016 7B        		.byte	123
 1438 0017 82        		.byte	-126
 1439 0018 68        		.byte	104
 1440 0019 3F        		.byte	63
 1441 001a 18        		.byte	24
 1442 001b 02        		.byte	2
 1443 001c 01        		.byte	1
 1444 001d 01        		.byte	1
 1445 001e 01        		.byte	1
 1446 001f 01        		.byte	1
 1447 0020 01        		.byte	1
 1448 0021 01        		.byte	1
 1449 0022 04        		.byte	4
 1450 0023 0F        		.byte	15
 1451 0024 1A        		.byte	26
 1452 0025 24        		.byte	36
 1453 0026 2E        		.byte	46
 1454 0027 37        		.byte	55
 1455 0028 42        		.byte	66
 1456 0029 4F        		.byte	79
 1457 002a 5B        		.byte	91
 1458 002b 66        		.byte	102
 1459 002c 6D        		.byte	109
 1460 002d 73        		.byte	115
GAS LISTING /var/folders/co/coknbUWaExmsbK3adiW3-++++TI/-Tmp-//ccwttGXi.s 			page 26


 1461 002e 79        		.byte	121
 1462 002f 83        		.byte	-125
 1463 0030 8E        		.byte	-114
 1464 0031 98        		.byte	-104
 1465 0032 9B        		.byte	-101
 1466 0033 97        		.byte	-105
 1467 0034 8D        		.byte	-115
 1468 0035 85        		.byte	-123
 1469 0036 83        		.byte	-125
 1470 0037 87        		.byte	-121
 1471 0038 90        		.byte	-112
 1472 0039 99        		.byte	-103
 1473 003a 9E        		.byte	-98
 1474 003b 9E        		.byte	-98
 1475 003c 9A        		.byte	-102
 1476 003d 97        		.byte	-105
 1477 003e 96        		.byte	-106
 1478 003f 95        		.byte	-107
 1479 0040 94        		.byte	-108
 1480 0041 90        		.byte	-112
 1481 0042 8B        		.byte	-117
 1482 0043 88        		.byte	-120
 1483 0044 8A        		.byte	-118
 1484 0045 91        		.byte	-111
 1485 0046 9B        		.byte	-101
 1486 0047 A1        		.byte	-95
 1487 0048 A0        		.byte	-96
 1488 0049 99        		.byte	-103
 1489 004a 90        		.byte	-112
 1490 004b 8A        		.byte	-118
 1491 004c 8B        		.byte	-117
 1492 004d 91        		.byte	-111
 1493 004e 98        		.byte	-104
 1494 004f 9C        		.byte	-100
 1495 0050 9A        		.byte	-102
 1496 0051 94        		.byte	-108
 1497 0052 8D        		.byte	-115
 1498 0053 8A        		.byte	-118
 1499 0054 8C        		.byte	-116
 1500 0055 91        		.byte	-111
 1501 0056 96        		.byte	-106
 1502 0057 99        		.byte	-103
 1503 0058 99        		.byte	-103
 1504 0059 98        		.byte	-104
 1505 005a 98        		.byte	-104
 1506 005b 9A        		.byte	-102
 1507 005c 9A        		.byte	-102
 1508 005d 96        		.byte	-106
 1509 005e 8E        		.byte	-114
 1510 005f 86        		.byte	-122
 1511 0060 81        		.byte	-127
 1512 0061 84        		.byte	-124
 1513 0062 8E        		.byte	-114
 1514 0063 9C        		.byte	-100
 1515 0064 A8        		.byte	-88
 1516 0065 AA        		.byte	-86
 1517 0066 A1        		.byte	-95
GAS LISTING /var/folders/co/coknbUWaExmsbK3adiW3-++++TI/-Tmp-//ccwttGXi.s 			page 27


 1518 0067 92        		.byte	-110
 1519 0068 83        		.byte	-125
 1520 0069 79        		.byte	121
 1521 006a 75        		.byte	117
 1522 006b 74        		.byte	116
 1523 006c 74        		.byte	116
 1524 006d 73        		.byte	115
 1525 006e 71        		.byte	113
 1526 006f 6E        		.byte	110
 1527 0070 6D        		.byte	109
 1528 0071 6A        		.byte	106
 1529 0072 65        		.byte	101
 1530 0073 5C        		.byte	92
 1531 0074 50        		.byte	80
 1532 0075 43        		.byte	67
 1533 0076 3A        		.byte	58
 1534 0077 34        		.byte	52
 1535 0078 31        		.byte	49
 1536 0079 2E        		.byte	46
 1537 007a 2B        		.byte	43
 1538 007b 27        		.byte	39
 1539 007c 21        		.byte	33
 1540 007d 1B        		.byte	27
 1541 007e 16        		.byte	22
 1542 007f 12        		.byte	18
 1543 0080 0E        		.byte	14
 1544 0081 0B        		.byte	11
 1545 0082 07        		.byte	7
 1546 0083 05        		.byte	5
 1547 0084 03        		.byte	3
 1548 0085 01        		.byte	1
 1549 0086 01        		.byte	1
 1550 0087 00        		.byte	0
 1551 0088 01        		.byte	1
 1552 0089 00        		.byte	0
 1553               	.global	song2a
 1554               		.data
 1557               	song2a:
 1558 0004 7700      		.word	119
 1559 0006 0000      		.word	song2anotes
 1560               	.global	song2bnotes
 1561               		.section	.progmem.data
 1564               	song2bnotes:
 1565 008a 01        		.byte	1
 1566 008b 1F        		.byte	31
 1567 008c 59        		.byte	89
 1568 008d 7E        		.byte	126
 1569 008e 77        		.byte	119
 1570 008f 55        		.byte	85
 1571 0090 2A        		.byte	42
 1572 0091 06        		.byte	6
 1573 0092 01        		.byte	1
 1574 0093 01        		.byte	1
 1575 0094 01        		.byte	1
 1576 0095 01        		.byte	1
 1577 0096 01        		.byte	1
 1578 0097 01        		.byte	1
GAS LISTING /var/folders/co/coknbUWaExmsbK3adiW3-++++TI/-Tmp-//ccwttGXi.s 			page 28


 1579 0098 08        		.byte	8
 1580 0099 16        		.byte	22
 1581 009a 25        		.byte	37
 1582 009b 33        		.byte	51
 1583 009c 40        		.byte	64
 1584 009d 48        		.byte	72
 1585 009e 50        		.byte	80
 1586 009f 5C        		.byte	92
 1587 00a0 6C        		.byte	108
 1588 00a1 7A        		.byte	122
 1589 00a2 7F        		.byte	127
 1590 00a3 7A        		.byte	122
 1591 00a4 75        		.byte	117
 1592 00a5 7C        		.byte	124
 1593 00a6 8F        		.byte	-113
 1594 00a7 A3        		.byte	-93
 1595 00a8 A7        		.byte	-89
 1596 00a9 9B        		.byte	-101
 1597 00aa 8B        		.byte	-117
 1598 00ab 87        		.byte	-121
 1599 00ac 8E        		.byte	-114
 1600 00ad 96        		.byte	-106
 1601 00ae 96        		.byte	-106
 1602 00af 8D        		.byte	-115
 1603 00b0 83        		.byte	-125
 1604 00b1 81        		.byte	-127
 1605 00b2 85        		.byte	-123
 1606 00b3 8B        		.byte	-117
 1607 00b4 8F        		.byte	-113
 1608 00b5 92        		.byte	-110
 1609 00b6 95        		.byte	-107
 1610 00b7 98        		.byte	-104
 1611 00b8 96        		.byte	-106
 1612 00b9 90        		.byte	-112
 1613 00ba 8A        		.byte	-118
 1614 00bb 8A        		.byte	-118
 1615 00bc 91        		.byte	-111
 1616 00bd 96        		.byte	-106
 1617 00be 93        		.byte	-109
 1618 00bf 89        		.byte	-119
 1619 00c0 84        		.byte	-124
 1620 00c1 89        		.byte	-119
 1621 00c2 99        		.byte	-103
 1622 00c3 A6        		.byte	-90
 1623 00c4 A7        		.byte	-89
 1624 00c5 9C        		.byte	-100
 1625 00c6 94        		.byte	-108
 1626 00c7 95        		.byte	-107
 1627 00c8 9C        		.byte	-100
 1628 00c9 A1        		.byte	-95
 1629 00ca 9C        		.byte	-100
 1630 00cb 93        		.byte	-109
 1631 00cc 8D        		.byte	-115
 1632 00cd 91        		.byte	-111
 1633 00ce 98        		.byte	-104
 1634 00cf 9D        		.byte	-99
 1635 00d0 9C        		.byte	-100
GAS LISTING /var/folders/co/coknbUWaExmsbK3adiW3-++++TI/-Tmp-//ccwttGXi.s 			page 29


 1636 00d1 9A        		.byte	-102
 1637 00d2 9C        		.byte	-100
 1638 00d3 A1        		.byte	-95
 1639 00d4 A1        		.byte	-95
 1640 00d5 98        		.byte	-104
 1641 00d6 8C        		.byte	-116
 1642 00d7 85        		.byte	-123
 1643 00d8 83        		.byte	-125
 1644 00d9 82        		.byte	-126
 1645 00da 7C        		.byte	124
 1646 00db 72        		.byte	114
 1647 00dc 69        		.byte	105
 1648 00dd 66        		.byte	102
 1649 00de 67        		.byte	103
 1650 00df 65        		.byte	101
 1651 00e0 5D        		.byte	93
 1652 00e1 52        		.byte	82
 1653 00e2 4A        		.byte	74
 1654 00e3 44        		.byte	68
 1655 00e4 3F        		.byte	63
 1656 00e5 37        		.byte	55
 1657 00e6 2E        		.byte	46
 1658 00e7 26        		.byte	38
 1659 00e8 20        		.byte	32
 1660 00e9 1D        		.byte	29
 1661 00ea 19        		.byte	25
 1662 00eb 14        		.byte	20
 1663 00ec 0F        		.byte	15
 1664 00ed 0B        		.byte	11
 1665 00ee 08        		.byte	8
 1666 00ef 06        		.byte	6
 1667 00f0 04        		.byte	4
 1668 00f1 02        		.byte	2
 1669 00f2 01        		.byte	1
 1670 00f3 01        		.byte	1
 1671 00f4 00        		.byte	0
 1672 00f5 00        		.byte	0
 1673               	.global	song2b
 1674               		.data
 1677               	song2b:
 1678 0008 6C00      		.word	108
 1679 000a 0000      		.word	song2bnotes
 1680               	.global	song2cnotes
 1681               		.section	.progmem.data
 1684               	song2cnotes:
 1685 00f6 02        		.byte	2
 1686 00f7 19        		.byte	25
 1687 00f8 46        		.byte	70
 1688 00f9 75        		.byte	117
 1689 00fa 92        		.byte	-110
 1690 00fb 90        		.byte	-112
 1691 00fc 6F        		.byte	111
 1692 00fd 3D        		.byte	61
 1693 00fe 12        		.byte	18
 1694 00ff 01        		.byte	1
 1695 0100 01        		.byte	1
 1696 0101 01        		.byte	1
GAS LISTING /var/folders/co/coknbUWaExmsbK3adiW3-++++TI/-Tmp-//ccwttGXi.s 			page 30


 1697 0102 01        		.byte	1
 1698 0103 01        		.byte	1
 1699 0104 01        		.byte	1
 1700 0105 01        		.byte	1
 1701 0106 01        		.byte	1
 1702 0107 08        		.byte	8
 1703 0108 12        		.byte	18
 1704 0109 1C        		.byte	28
 1705 010a 27        		.byte	39
 1706 010b 32        		.byte	50
 1707 010c 3C        		.byte	60
 1708 010d 45        		.byte	69
 1709 010e 4E        		.byte	78
 1710 010f 55        		.byte	85
 1711 0110 5C        		.byte	92
 1712 0111 63        		.byte	99
 1713 0112 69        		.byte	105
 1714 0113 6F        		.byte	111
 1715 0114 76        		.byte	118
 1716 0115 7E        		.byte	126
 1717 0116 86        		.byte	-122
 1718 0117 8E        		.byte	-114
 1719 0118 95        		.byte	-107
 1720 0119 9B        		.byte	-101
 1721 011a 9F        		.byte	-97
 1722 011b A1        		.byte	-95
 1723 011c A0        		.byte	-96
 1724 011d 9C        		.byte	-100
 1725 011e 98        		.byte	-104
 1726 011f 92        		.byte	-110
 1727 0120 8B        		.byte	-117
 1728 0121 86        		.byte	-122
 1729 0122 81        		.byte	-127
 1730 0123 7E        		.byte	126
 1731 0124 7D        		.byte	125
 1732 0125 7E        		.byte	126
 1733 0126 81        		.byte	-127
 1734 0127 86        		.byte	-122
 1735 0128 8C        		.byte	-116
 1736 0129 94        		.byte	-108
 1737 012a 9B        		.byte	-101
 1738 012b A2        		.byte	-94
 1739 012c A8        		.byte	-88
 1740 012d AB        		.byte	-85
 1741 012e AC        		.byte	-84
 1742 012f AB        		.byte	-85
 1743 0130 A8        		.byte	-88
 1744 0131 A3        		.byte	-93
 1745 0132 9E        		.byte	-98
 1746 0133 99        		.byte	-103
 1747 0134 95        		.byte	-107
 1748 0135 92        		.byte	-110
 1749 0136 90        		.byte	-112
 1750 0137 90        		.byte	-112
 1751 0138 92        		.byte	-110
 1752 0139 94        		.byte	-108
 1753 013a 97        		.byte	-105
GAS LISTING /var/folders/co/coknbUWaExmsbK3adiW3-++++TI/-Tmp-//ccwttGXi.s 			page 31


 1754 013b 9A        		.byte	-102
 1755 013c 9D        		.byte	-99
 1756 013d 9E        		.byte	-98
 1757 013e 9E        		.byte	-98
 1758 013f 9D        		.byte	-99
 1759 0140 9A        		.byte	-102
 1760 0141 96        		.byte	-106
 1761 0142 91        		.byte	-111
 1762 0143 8D        		.byte	-115
 1763 0144 89        		.byte	-119
 1764 0145 86        		.byte	-122
 1765 0146 85        		.byte	-123
 1766 0147 84        		.byte	-124
 1767 0148 86        		.byte	-122
 1768 0149 88        		.byte	-120
 1769 014a 8B        		.byte	-117
 1770 014b 8F        		.byte	-113
 1771 014c 93        		.byte	-109
 1772 014d 95        		.byte	-107
 1773 014e 96        		.byte	-106
 1774 014f 96        		.byte	-106
 1775 0150 93        		.byte	-109
 1776 0151 8F        		.byte	-113
 1777 0152 8A        		.byte	-118
 1778 0153 85        		.byte	-123
 1779 0154 80        		.byte	-128
 1780 0155 7B        		.byte	123
 1781 0156 76        		.byte	118
 1782 0157 73        		.byte	115
 1783 0158 71        		.byte	113
 1784 0159 6F        		.byte	111
 1785 015a 6D        		.byte	109
 1786 015b 6C        		.byte	108
 1787 015c 69        		.byte	105
 1788 015d 66        		.byte	102
 1789 015e 62        		.byte	98
 1790 015f 5C        		.byte	92
 1791 0160 56        		.byte	86
 1792 0161 4E        		.byte	78
 1793 0162 46        		.byte	70
 1794 0163 3F        		.byte	63
 1795 0164 37        		.byte	55
 1796 0165 30        		.byte	48
 1797 0166 2A        		.byte	42
 1798 0167 25        		.byte	37
 1799 0168 21        		.byte	33
 1800 0169 1D        		.byte	29
 1801 016a 19        		.byte	25
 1802 016b 16        		.byte	22
 1803 016c 13        		.byte	19
 1804 016d 10        		.byte	16
 1805 016e 0D        		.byte	13
 1806 016f 0A        		.byte	10
 1807 0170 07        		.byte	7
 1808 0171 05        		.byte	5
 1809 0172 03        		.byte	3
 1810 0173 02        		.byte	2
GAS LISTING /var/folders/co/coknbUWaExmsbK3adiW3-++++TI/-Tmp-//ccwttGXi.s 			page 32


 1811 0174 01        		.byte	1
 1812 0175 01        		.byte	1
 1813 0176 00        		.byte	0
 1814 0177 00        		.byte	0
 1815               	.global	song2c
 1816               		.data
 1819               	song2c:
 1820 000c 8200      		.word	130
 1821 000e 0000      		.word	song2cnotes
 1822               	.global	song2dnotes
 1823               		.section	.progmem.data
 1826               	song2dnotes:
 1827 0178 01        		.byte	1
 1828 0179 1B        		.byte	27
 1829 017a 48        		.byte	72
 1830 017b 6D        		.byte	109
 1831 017c 79        		.byte	121
 1832 017d 68        		.byte	104
 1833 017e 3D        		.byte	61
 1834 017f 11        		.byte	17
 1835 0180 01        		.byte	1
 1836 0181 01        		.byte	1
 1837 0182 01        		.byte	1
 1838 0183 01        		.byte	1
 1839 0184 01        		.byte	1
 1840 0185 01        		.byte	1
 1841 0186 01        		.byte	1
 1842 0187 0B        		.byte	11
 1843 0188 15        		.byte	21
 1844 0189 22        		.byte	34
 1845 018a 30        		.byte	48
 1846 018b 3C        		.byte	60
 1847 018c 46        		.byte	70
 1848 018d 4D        		.byte	77
 1849 018e 56        		.byte	86
 1850 018f 63        		.byte	99
 1851 0190 73        		.byte	115
 1852 0191 80        		.byte	-128
 1853 0192 87        		.byte	-121
 1854 0193 87        		.byte	-121
 1855 0194 86        		.byte	-122
 1856 0195 88        		.byte	-120
 1857 0196 8D        		.byte	-115
 1858 0197 90        		.byte	-112
 1859 0198 8F        		.byte	-113
 1860 0199 8B        		.byte	-117
 1861 019a 8A        		.byte	-118
 1862 019b 8D        		.byte	-115
 1863 019c 93        		.byte	-109
 1864 019d 94        		.byte	-108
 1865 019e 8E        		.byte	-114
 1866 019f 83        		.byte	-125
 1867 01a0 7B        		.byte	123
 1868 01a1 7E        		.byte	126
 1869 01a2 8A        		.byte	-118
 1870 01a3 99        		.byte	-103
 1871 01a4 A4        		.byte	-92
GAS LISTING /var/folders/co/coknbUWaExmsbK3adiW3-++++TI/-Tmp-//ccwttGXi.s 			page 33


 1872 01a5 A6        		.byte	-90
 1873 01a6 A1        		.byte	-95
 1874 01a7 9C        		.byte	-100
 1875 01a8 9A        		.byte	-102
 1876 01a9 9A        		.byte	-102
 1877 01aa 99        		.byte	-103
 1878 01ab 97        		.byte	-105
 1879 01ac 96        		.byte	-106
 1880 01ad 9B        		.byte	-101
 1881 01ae A3        		.byte	-93
 1882 01af A9        		.byte	-87
 1883 01b0 A6        		.byte	-90
 1884 01b1 98        		.byte	-104
 1885 01b2 88        		.byte	-120
 1886 01b3 7E        		.byte	126
 1887 01b4 80        		.byte	-128
 1888 01b5 8B        		.byte	-117
 1889 01b6 97        		.byte	-105
 1890 01b7 9C        		.byte	-100
 1891 01b8 99        		.byte	-103
 1892 01b9 92        		.byte	-110
 1893 01ba 8C        		.byte	-116
 1894 01bb 88        		.byte	-120
 1895 01bc 83        		.byte	-125
 1896 01bd 7B        		.byte	123
 1897 01be 73        		.byte	115
 1898 01bf 6E        		.byte	110
 1899 01c0 6E        		.byte	110
 1900 01c1 70        		.byte	112
 1901 01c2 6E        		.byte	110
 1902 01c3 64        		.byte	100
 1903 01c4 56        		.byte	86
 1904 01c5 49        		.byte	73
 1905 01c6 41        		.byte	65
 1906 01c7 3E        		.byte	62
 1907 01c8 3C        		.byte	60
 1908 01c9 3A        		.byte	58
 1909 01ca 34        		.byte	52
 1910 01cb 2E        		.byte	46
 1911 01cc 28        		.byte	40
 1912 01cd 23        		.byte	35
 1913 01ce 1F        		.byte	31
 1914 01cf 19        		.byte	25
 1915 01d0 14        		.byte	20
 1916 01d1 0F        		.byte	15
 1917 01d2 0B        		.byte	11
 1918 01d3 08        		.byte	8
 1919 01d4 06        		.byte	6
 1920 01d5 04        		.byte	4
 1921 01d6 02        		.byte	2
 1922 01d7 01        		.byte	1
 1923 01d8 01        		.byte	1
 1924 01d9 00        		.byte	0
 1925 01da 00        		.byte	0
 1926               	.global	song2d
 1927               		.data
 1930               	song2d:
GAS LISTING /var/folders/co/coknbUWaExmsbK3adiW3-++++TI/-Tmp-//ccwttGXi.s 			page 34


 1931 0010 6300      		.word	99
 1932 0012 0000      		.word	song2dnotes
 1933               	.global	song2enotes
 1934               		.section	.progmem.data
 1937               	song2enotes:
 1938 01db 01        		.byte	1
 1939 01dc 1A        		.byte	26
 1940 01dd 49        		.byte	73
 1941 01de 74        		.byte	116
 1942 01df 83        		.byte	-125
 1943 01e0 73        		.byte	115
 1944 01e1 50        		.byte	80
 1945 01e2 27        		.byte	39
 1946 01e3 08        		.byte	8
 1947 01e4 01        		.byte	1
 1948 01e5 01        		.byte	1
 1949 01e6 01        		.byte	1
 1950 01e7 01        		.byte	1
 1951 01e8 01        		.byte	1
 1952 01e9 01        		.byte	1
 1953 01ea 01        		.byte	1
 1954 01eb 06        		.byte	6
 1955 01ec 0F        		.byte	15
 1956 01ed 1A        		.byte	26
 1957 01ee 24        		.byte	36
 1958 01ef 2F        		.byte	47
 1959 01f0 3A        		.byte	58
 1960 01f1 46        		.byte	70
 1961 01f2 52        		.byte	82
 1962 01f3 5B        		.byte	91
 1963 01f4 62        		.byte	98
 1964 01f5 66        		.byte	102
 1965 01f6 6A        		.byte	106
 1966 01f7 6F        		.byte	111
 1967 01f8 77        		.byte	119
 1968 01f9 83        		.byte	-125
 1969 01fa 90        		.byte	-112
 1970 01fb 9A        		.byte	-102
 1971 01fc 9D        		.byte	-99
 1972 01fd 99        		.byte	-103
 1973 01fe 90        		.byte	-112
 1974 01ff 89        		.byte	-119
 1975 0200 86        		.byte	-122
 1976 0201 89        		.byte	-119
 1977 0202 92        		.byte	-110
 1978 0203 9A        		.byte	-102
 1979 0204 9E        		.byte	-98
 1980 0205 9C        		.byte	-100
 1981 0206 95        		.byte	-107
 1982 0207 8D        		.byte	-115
 1983 0208 89        		.byte	-119
 1984 0209 8A        		.byte	-118
 1985 020a 8F        		.byte	-113
 1986 020b 97        		.byte	-105
 1987 020c 9D        		.byte	-99
 1988 020d 9E        		.byte	-98
 1989 020e 9B        		.byte	-101
GAS LISTING /var/folders/co/coknbUWaExmsbK3adiW3-++++TI/-Tmp-//ccwttGXi.s 			page 35


 1990 020f 97        		.byte	-105
 1991 0210 94        		.byte	-108
 1992 0211 96        		.byte	-106
 1993 0212 9A        		.byte	-102
 1994 0213 9E        		.byte	-98
 1995 0214 A0        		.byte	-96
 1996 0215 9E        		.byte	-98
 1997 0216 99        		.byte	-103
 1998 0217 94        		.byte	-108
 1999 0218 90        		.byte	-112
 2000 0219 91        		.byte	-111
 2001 021a 93        		.byte	-109
 2002 021b 96        		.byte	-106
 2003 021c 96        		.byte	-106
 2004 021d 92        		.byte	-110
 2005 021e 8C        		.byte	-116
 2006 021f 85        		.byte	-123
 2007 0220 82        		.byte	-126
 2008 0221 83        		.byte	-125
 2009 0222 87        		.byte	-121
 2010 0223 8C        		.byte	-116
 2011 0224 8F        		.byte	-113
 2012 0225 90        		.byte	-112
 2013 0226 8E        		.byte	-114
 2014 0227 8D        		.byte	-115
 2015 0228 8D        		.byte	-115
 2016 0229 90        		.byte	-112
 2017 022a 95        		.byte	-107
 2018 022b 99        		.byte	-103
 2019 022c 9C        		.byte	-100
 2020 022d 9D        		.byte	-99
 2021 022e 9D        		.byte	-99
 2022 022f 9D        		.byte	-99
 2023 0230 A0        		.byte	-96
 2024 0231 A4        		.byte	-92
 2025 0232 A7        		.byte	-89
 2026 0233 A7        		.byte	-89
 2027 0234 A1        		.byte	-95
 2028 0235 99        		.byte	-103
 2029 0236 91        		.byte	-111
 2030 0237 8E        		.byte	-114
 2031 0238 8F        		.byte	-113
 2032 0239 95        		.byte	-107
 2033 023a 9A        		.byte	-102
 2034 023b 9B        		.byte	-101
 2035 023c 95        		.byte	-107
 2036 023d 89        		.byte	-119
 2037 023e 7C        		.byte	124
 2038 023f 73        		.byte	115
 2039 0240 70        		.byte	112
 2040 0241 74        		.byte	116
 2041 0242 7B        		.byte	123
 2042 0243 80        		.byte	-128
 2043 0244 80        		.byte	-128
 2044 0245 79        		.byte	121
 2045 0246 6E        		.byte	110
 2046 0247 63        		.byte	99
GAS LISTING /var/folders/co/coknbUWaExmsbK3adiW3-++++TI/-Tmp-//ccwttGXi.s 			page 36


 2047 0248 5B        		.byte	91
 2048 0249 58        		.byte	88
 2049 024a 58        		.byte	88
 2050 024b 59        		.byte	89
 2051 024c 57        		.byte	87
 2052 024d 53        		.byte	83
 2053 024e 4B        		.byte	75
 2054 024f 42        		.byte	66
 2055 0250 39        		.byte	57
 2056 0251 32        		.byte	50
 2057 0252 2C        		.byte	44
 2058 0253 26        		.byte	38
 2059 0254 22        		.byte	34
 2060 0255 1D        		.byte	29
 2061 0256 19        		.byte	25
 2062 0257 14        		.byte	20
 2063 0258 11        		.byte	17
 2064 0259 0D        		.byte	13
 2065 025a 09        		.byte	9
 2066 025b 07        		.byte	7
 2067 025c 04        		.byte	4
 2068 025d 03        		.byte	3
 2069 025e 01        		.byte	1
 2070 025f 01        		.byte	1
 2071 0260 00        		.byte	0
 2072 0261 01        		.byte	1
 2073 0262 00        		.byte	0
 2074               	.global	song2e
 2075               		.data
 2078               	song2e:
 2079 0014 8800      		.word	136
 2080 0016 0000      		.word	song2enotes
 2081               	.global	song2fnotes
 2082               		.section	.progmem.data
 2085               	song2fnotes:
 2086 0263 02        		.byte	2
 2087 0264 24        		.byte	36
 2088 0265 5E        		.byte	94
 2089 0266 82        		.byte	-126
 2090 0267 79        		.byte	121
 2091 0268 4F        		.byte	79
 2092 0269 1B        		.byte	27
 2093 026a 01        		.byte	1
 2094 026b 01        		.byte	1
 2095 026c 01        		.byte	1
 2096 026d 01        		.byte	1
 2097 026e 01        		.byte	1
 2098 026f 01        		.byte	1
 2099 0270 05        		.byte	5
 2100 0271 10        		.byte	16
 2101 0272 1E        		.byte	30
 2102 0273 2D        		.byte	45
 2103 0274 3B        		.byte	59
 2104 0275 47        		.byte	71
 2105 0276 52        		.byte	82
 2106 0277 5E        		.byte	94
 2107 0278 6B        		.byte	107
GAS LISTING /var/folders/co/coknbUWaExmsbK3adiW3-++++TI/-Tmp-//ccwttGXi.s 			page 37


 2108 0279 77        		.byte	119
 2109 027a 82        		.byte	-126
 2110 027b 89        		.byte	-119
 2111 027c 8E        		.byte	-114
 2112 027d 93        		.byte	-109
 2113 027e 97        		.byte	-105
 2114 027f 9A        		.byte	-102
 2115 0280 99        		.byte	-103
 2116 0281 95        		.byte	-107
 2117 0282 90        		.byte	-112
 2118 0283 8D        		.byte	-115
 2119 0284 8D        		.byte	-115
 2120 0285 8F        		.byte	-113
 2121 0286 8F        		.byte	-113
 2122 0287 8C        		.byte	-116
 2123 0288 86        		.byte	-122
 2124 0289 83        		.byte	-125
 2125 028a 87        		.byte	-121
 2126 028b 91        		.byte	-111
 2127 028c A0        		.byte	-96
 2128 028d AB        		.byte	-85
 2129 028e AC        		.byte	-84
 2130 028f A3        		.byte	-93
 2131 0290 96        		.byte	-106
 2132 0291 8D        		.byte	-115
 2133 0292 8C        		.byte	-116
 2134 0293 91        		.byte	-111
 2135 0294 97        		.byte	-105
 2136 0295 98        		.byte	-104
 2137 0296 93        		.byte	-109
 2138 0297 8A        		.byte	-118
 2139 0298 86        		.byte	-122
 2140 0299 88        		.byte	-120
 2141 029a 93        		.byte	-109
 2142 029b 9F        		.byte	-97
 2143 029c A5        		.byte	-91
 2144 029d A2        		.byte	-94
 2145 029e 98        		.byte	-104
 2146 029f 8C        		.byte	-116
 2147 02a0 84        		.byte	-124
 2148 02a1 81        		.byte	-127
 2149 02a2 83        		.byte	-125
 2150 02a3 84        		.byte	-124
 2151 02a4 83        		.byte	-125
 2152 02a5 7F        		.byte	127
 2153 02a6 7B        		.byte	123
 2154 02a7 77        		.byte	119
 2155 02a8 74        		.byte	116
 2156 02a9 70        		.byte	112
 2157 02aa 69        		.byte	105
 2158 02ab 60        		.byte	96
 2159 02ac 56        		.byte	86
 2160 02ad 4D        		.byte	77
 2161 02ae 45        		.byte	69
 2162 02af 3E        		.byte	62
 2163 02b0 36        		.byte	54
 2164 02b1 2D        		.byte	45
GAS LISTING /var/folders/co/coknbUWaExmsbK3adiW3-++++TI/-Tmp-//ccwttGXi.s 			page 38


 2165 02b2 26        		.byte	38
 2166 02b3 1F        		.byte	31
 2167 02b4 1B        		.byte	27
 2168 02b5 17        		.byte	23
 2169 02b6 13        		.byte	19
 2170 02b7 0E        		.byte	14
 2171 02b8 0A        		.byte	10
 2172 02b9 06        		.byte	6
 2173 02ba 04        		.byte	4
 2174 02bb 02        		.byte	2
 2175 02bc 01        		.byte	1
 2176 02bd 01        		.byte	1
 2177 02be 00        		.byte	0
 2178 02bf 00        		.byte	0
 2179               	.global	song2f
 2180               		.data
 2183               	song2f:
 2184 0018 5D00      		.word	93
 2185 001a 0000      		.word	song2fnotes
 2186               	.global	song2gnotes
 2187               		.section	.progmem.data
 2190               	song2gnotes:
 2191 02c0 02        		.byte	2
 2192 02c1 2A        		.byte	42
 2193 02c2 63        		.byte	99
 2194 02c3 79        		.byte	121
 2195 02c4 60        		.byte	96
 2196 02c5 2A        		.byte	42
 2197 02c6 03        		.byte	3
 2198 02c7 01        		.byte	1
 2199 02c8 01        		.byte	1
 2200 02c9 01        		.byte	1
 2201 02ca 01        		.byte	1
 2202 02cb 01        		.byte	1
 2203 02cc 0C        		.byte	12
 2204 02cd 19        		.byte	25
 2205 02ce 29        		.byte	41
 2206 02cf 3C        		.byte	60
 2207 02d0 4D        		.byte	77
 2208 02d1 56        		.byte	86
 2209 02d2 5B        		.byte	91
 2210 02d3 64        		.byte	100
 2211 02d4 76        		.byte	118
 2212 02d5 88        		.byte	-120
 2213 02d6 90        		.byte	-112
 2214 02d7 8F        		.byte	-113
 2215 02d8 8D        		.byte	-115
 2216 02d9 92        		.byte	-110
 2217 02da 99        		.byte	-103
 2218 02db 9B        		.byte	-101
 2219 02dc 99        		.byte	-103
 2220 02dd 98        		.byte	-104
 2221 02de 9B        		.byte	-101
 2222 02df 9A        		.byte	-102
 2223 02e0 94        		.byte	-108
 2224 02e1 8D        		.byte	-115
 2225 02e2 8E        		.byte	-114
GAS LISTING /var/folders/co/coknbUWaExmsbK3adiW3-++++TI/-Tmp-//ccwttGXi.s 			page 39


 2226 02e3 98        		.byte	-104
 2227 02e4 9F        		.byte	-97
 2228 02e5 9A        		.byte	-102
 2229 02e6 8E        		.byte	-114
 2230 02e7 88        		.byte	-120
 2231 02e8 8D        		.byte	-115
 2232 02e9 98        		.byte	-104
 2233 02ea 99        		.byte	-103
 2234 02eb 8F        		.byte	-113
 2235 02ec 84        		.byte	-124
 2236 02ed 7E        		.byte	126
 2237 02ee 7C        		.byte	124
 2238 02ef 78        		.byte	120
 2239 02f0 6F        		.byte	111
 2240 02f1 65        		.byte	101
 2241 02f2 5C        		.byte	92
 2242 02f3 53        		.byte	83
 2243 02f4 48        		.byte	72
 2244 02f5 3B        		.byte	59
 2245 02f6 31        		.byte	49
 2246 02f7 2B        		.byte	43
 2247 02f8 26        		.byte	38
 2248 02f9 1E        		.byte	30
 2249 02fa 15        		.byte	21
 2250 02fb 0F        		.byte	15
 2251 02fc 0B        		.byte	11
 2252 02fd 08        		.byte	8
 2253 02fe 05        		.byte	5
 2254 02ff 03        		.byte	3
 2255 0300 01        		.byte	1
 2256 0301 01        		.byte	1
 2257 0302 00        		.byte	0
 2258 0303 00        		.byte	0
 2259               	.global	song2g
 2260               		.data
 2263               	song2g:
 2264 001c 4400      		.word	68
 2265 001e 0000      		.word	song2gnotes
 2266               	.global	bootsongs
 2269               	bootsongs:
 2270 0020 0000      		.word	bootsong
 2271               	.global	songs
 2274               	songs:
 2275 0022 0000      		.word	song2a
 2276 0024 0000      		.word	song2b
 2277 0026 0000      		.word	song2b
 2278 0028 0000      		.word	song2c
 2279 002a 0000      		.word	song2c
 2280 002c 0000      		.word	song2c
 2281 002e 0000      		.word	song2d
 2282 0030 0000      		.word	song2d
 2283 0032 0000      		.word	song2e
 2284 0034 0000      		.word	song2e
 2285 0036 0000      		.word	song2e
 2286 0038 0000      		.word	song2f
 2287 003a 0000      		.word	song2f
 2288 003c 0000      		.word	song2g
GAS LISTING /var/folders/co/coknbUWaExmsbK3adiW3-++++TI/-Tmp-//ccwttGXi.s 			page 40


 2289 003e 0000      		.word	song2g
 2290 0040 0000      		.word	song2g
 2291               	.global	bitmasks
 2292               		.section	.progmem.data
 2295               	bitmasks:
 2296 0304 00        		.byte	0
 2297 0305 01        		.byte	1
 2298 0306 03        		.byte	3
 2299 0307 07        		.byte	7
 2300 0308 0F        		.byte	15
 2301 0309 1F        		.byte	31
 2302 030a 3F        		.byte	63
 2303 030b 7F        		.byte	127
 2304 030c FF        		.byte	-1
 2305               	.global	about
 2308               	about:
 2309 030d 4A61 7220 		.ascii	"Jar of Fireflies\nDesign and Implementation by Xander Hudson"
 2309      6F66 2046 
 2309      6972 6566 
 2309      6C69 6573 
 2309      0A44 6573 
 2310 0348 2028 6A61 		.ascii	" (jar@synoptic.org)\nIdea and Inspiration by Kayobi Tierney\n"
 2310      7240 7379 
 2310      6E6F 7074 
 2310      6963 2E6F 
 2310      7267 290A 
 2311 0383 5370 6563 		.ascii	"Specia"
 2311      6961 
 2312 0389 6C20 7468 		.string	"l thanks to Katie Horn for getting me to think about electronics"
 2312      616E 6B73 
 2312      2074 6F20 
 2312      4B61 7469 
 2312      6520 486F 
 2313               	.global	version
 2316               	version:
 2317 03ca 2452 6576 		.string	"$Revision: 1.41 $ $Date: 2007/01/10 04:35:55 $"
 2317      6973 696F 
 2317      6E3A 2031 
 2317      2E34 3120 
 2317      2420 2444 
 2318               	.global	mood
 2319               		.data
 2322               	mood:
 2323 0042 02        		.byte	2
 2324               	.global	mood_count
 2327               	mood_count:
 2328 0043 1E00      		.word	30
 2329               		.lcomm temp.1722,1
 2330               		.lcomm ch2noteptr.1721,2
 2331               		.lcomm ch1noteptr.1720,2
 2332               		.lcomm ch2song.1719,2
 2333               		.lcomm ch1song.1718,2
 2336               	lfsr.1631:
 2337 0045 CE74      		.word	29902
 2338               		.lcomm ticker.1618,1
 2341               	ch1pins.1520:
 2342 0047 08        		.byte	8
GAS LISTING /var/folders/co/coknbUWaExmsbK3adiW3-++++TI/-Tmp-//ccwttGXi.s 			page 41


 2343 0048 04        		.byte	4
 2344 0049 01        		.byte	1
 2347               	masterpins.1519:
 2348 004a 10        		.byte	16
 2349 004b 02        		.byte	2
 2350               		.lcomm x.1435,1
 2353               	debounce.1682:
 2354 004c 0A        		.byte	10
 2355               		.comm ch1restcount,1,1
 2356               		.comm ch2restcount,1,1
 2357               		.comm ch1nextnote,1,1
 2358               		.comm ch2nextnote,1,1
 2359               		.comm ch1scale,1,1
 2360               		.comm ch2scale,1,1
 2361               		.comm ch1nextscale,1,1
 2362               		.comm ch2nextscale,1,1
 2363               		.comm masterpinmask,1,1
 2364               		.comm waiting_for_dark,1,1
 2365               		.comm is_dark,1,1
 2366               		.comm force_dark,1,1
 2471               	.Letext0:
GAS LISTING /var/folders/co/coknbUWaExmsbK3adiW3-++++TI/-Tmp-//ccwttGXi.s 			page 42


DEFINED SYMBOLS
                            *ABS*:00000000 firefly.c
/var/folders/co/coknbUWaExmsbK3adiW3-++++TI/-Tmp-//ccwttGXi.s:2      *ABS*:0000003f __SREG__
/var/folders/co/coknbUWaExmsbK3adiW3-++++TI/-Tmp-//ccwttGXi.s:3      *ABS*:0000003e __SP_H__
/var/folders/co/coknbUWaExmsbK3adiW3-++++TI/-Tmp-//ccwttGXi.s:4      *ABS*:0000003d __SP_L__
/var/folders/co/coknbUWaExmsbK3adiW3-++++TI/-Tmp-//ccwttGXi.s:5      *ABS*:00000034 __CCP__
/var/folders/co/coknbUWaExmsbK3adiW3-++++TI/-Tmp-//ccwttGXi.s:6      *ABS*:00000000 __tmp_reg__
/var/folders/co/coknbUWaExmsbK3adiW3-++++TI/-Tmp-//ccwttGXi.s:7      *ABS*:00000001 __zero_reg__
/var/folders/co/coknbUWaExmsbK3adiW3-++++TI/-Tmp-//ccwttGXi.s:18     .text:00000000 __vector_12
                            *COM*:00000001 force_dark
/var/folders/co/coknbUWaExmsbK3adiW3-++++TI/-Tmp-//ccwttGXi.s:2353   .data:0000004c debounce.1682
                            *COM*:00000001 is_dark
                            *COM*:00000001 ch1restcount
                            *COM*:00000001 ch2restcount
/var/folders/co/coknbUWaExmsbK3adiW3-++++TI/-Tmp-//ccwttGXi.s:2327   .data:00000043 mood_count
/var/folders/co/coknbUWaExmsbK3adiW3-++++TI/-Tmp-//ccwttGXi.s:152    .text:000000ca __vector_10
                            *COM*:00000001 waiting_for_dark
/var/folders/co/coknbUWaExmsbK3adiW3-++++TI/-Tmp-//ccwttGXi.s:2338   .bss:0000000a x.1435
                            *COM*:00000001 ch1nextnote
                            *COM*:00000001 ch2nextnote
                            *COM*:00000001 masterpinmask
/var/folders/co/coknbUWaExmsbK3adiW3-++++TI/-Tmp-//ccwttGXi.s:291    .text:0000018e von_322
/var/folders/co/coknbUWaExmsbK3adiW3-++++TI/-Tmp-//ccwttGXi.s:293    .text:00000190 turnon_322
/var/folders/co/coknbUWaExmsbK3adiW3-++++TI/-Tmp-//ccwttGXi.s:297    .text:00000196 turnoff_322
/var/folders/co/coknbUWaExmsbK3adiW3-++++TI/-Tmp-//ccwttGXi.s:299    .text:00000198 done_322
/var/folders/co/coknbUWaExmsbK3adiW3-++++TI/-Tmp-//ccwttGXi.s:315    .text:000001a8 von_330
/var/folders/co/coknbUWaExmsbK3adiW3-++++TI/-Tmp-//ccwttGXi.s:317    .text:000001aa turnon_330
/var/folders/co/coknbUWaExmsbK3adiW3-++++TI/-Tmp-//ccwttGXi.s:321    .text:000001b0 turnoff_330
/var/folders/co/coknbUWaExmsbK3adiW3-++++TI/-Tmp-//ccwttGXi.s:323    .text:000001b2 done_330
/var/folders/co/coknbUWaExmsbK3adiW3-++++TI/-Tmp-//ccwttGXi.s:340    .text:000001be showbootup
/var/folders/co/coknbUWaExmsbK3adiW3-++++TI/-Tmp-//ccwttGXi.s:2269   .data:00000020 bootsongs
/var/folders/co/coknbUWaExmsbK3adiW3-++++TI/-Tmp-//ccwttGXi.s:2347   .data:0000004a masterpins.1519
/var/folders/co/coknbUWaExmsbK3adiW3-++++TI/-Tmp-//ccwttGXi.s:2341   .data:00000047 ch1pins.1520
/var/folders/co/coknbUWaExmsbK3adiW3-++++TI/-Tmp-//ccwttGXi.s:512    .text:0000027e randbits
/var/folders/co/coknbUWaExmsbK3adiW3-++++TI/-Tmp-//ccwttGXi.s:2336   .data:00000045 lfsr.1631
/var/folders/co/coknbUWaExmsbK3adiW3-++++TI/-Tmp-//ccwttGXi.s:2295   .progmem.data:00000304 bitmasks
/var/folders/co/coknbUWaExmsbK3adiW3-++++TI/-Tmp-//ccwttGXi.s:572    .text:000002c0 pickmaster
/var/folders/co/coknbUWaExmsbK3adiW3-++++TI/-Tmp-//ccwttGXi.s:2333   .bss:00000009 ticker.1618
/var/folders/co/coknbUWaExmsbK3adiW3-++++TI/-Tmp-//ccwttGXi.s:605    .text:000002e6 pickapin
/var/folders/co/coknbUWaExmsbK3adiW3-++++TI/-Tmp-//ccwttGXi.s:670    .text:00000326 randscaleval
/var/folders/co/coknbUWaExmsbK3adiW3-++++TI/-Tmp-//ccwttGXi.s:710    .text:0000035e randwaitval
/var/folders/co/coknbUWaExmsbK3adiW3-++++TI/-Tmp-//ccwttGXi.s:2322   .data:00000042 mood
/var/folders/co/coknbUWaExmsbK3adiW3-++++TI/-Tmp-//ccwttGXi.s:760    .text:000003ac pickasong
/var/folders/co/coknbUWaExmsbK3adiW3-++++TI/-Tmp-//ccwttGXi.s:2274   .data:00000022 songs
/var/folders/co/coknbUWaExmsbK3adiW3-++++TI/-Tmp-//ccwttGXi.s:788    .text:000003cc lighted_fireflies
                             .bss:00000000 temp.1722
/var/folders/co/coknbUWaExmsbK3adiW3-++++TI/-Tmp-//ccwttGXi.s:2330   .bss:00000003 ch1noteptr.1720
/var/folders/co/coknbUWaExmsbK3adiW3-++++TI/-Tmp-//ccwttGXi.s:2332   .bss:00000007 ch1song.1718
                            *COM*:00000001 ch1scale
/var/folders/co/coknbUWaExmsbK3adiW3-++++TI/-Tmp-//ccwttGXi.s:2329   .bss:00000001 ch2noteptr.1721
/var/folders/co/coknbUWaExmsbK3adiW3-++++TI/-Tmp-//ccwttGXi.s:2331   .bss:00000005 ch2song.1719
                            *COM*:00000001 ch2scale
/var/folders/co/coknbUWaExmsbK3adiW3-++++TI/-Tmp-//ccwttGXi.s:1223   .text:00000604 main
/var/folders/co/coknbUWaExmsbK3adiW3-++++TI/-Tmp-//ccwttGXi.s:1402   .progmem.data:00000000 bootsongnotes
/var/folders/co/coknbUWaExmsbK3adiW3-++++TI/-Tmp-//ccwttGXi.s:1426   .data:00000000 bootsong
/var/folders/co/coknbUWaExmsbK3adiW3-++++TI/-Tmp-//ccwttGXi.s:1433   .progmem.data:00000013 song2anotes
/var/folders/co/coknbUWaExmsbK3adiW3-++++TI/-Tmp-//ccwttGXi.s:1557   .data:00000004 song2a
GAS LISTING /var/folders/co/coknbUWaExmsbK3adiW3-++++TI/-Tmp-//ccwttGXi.s 			page 43


/var/folders/co/coknbUWaExmsbK3adiW3-++++TI/-Tmp-//ccwttGXi.s:1564   .progmem.data:0000008a song2bnotes
/var/folders/co/coknbUWaExmsbK3adiW3-++++TI/-Tmp-//ccwttGXi.s:1677   .data:00000008 song2b
/var/folders/co/coknbUWaExmsbK3adiW3-++++TI/-Tmp-//ccwttGXi.s:1684   .progmem.data:000000f6 song2cnotes
/var/folders/co/coknbUWaExmsbK3adiW3-++++TI/-Tmp-//ccwttGXi.s:1819   .data:0000000c song2c
/var/folders/co/coknbUWaExmsbK3adiW3-++++TI/-Tmp-//ccwttGXi.s:1826   .progmem.data:00000178 song2dnotes
/var/folders/co/coknbUWaExmsbK3adiW3-++++TI/-Tmp-//ccwttGXi.s:1930   .data:00000010 song2d
/var/folders/co/coknbUWaExmsbK3adiW3-++++TI/-Tmp-//ccwttGXi.s:1937   .progmem.data:000001db song2enotes
/var/folders/co/coknbUWaExmsbK3adiW3-++++TI/-Tmp-//ccwttGXi.s:2078   .data:00000014 song2e
/var/folders/co/coknbUWaExmsbK3adiW3-++++TI/-Tmp-//ccwttGXi.s:2085   .progmem.data:00000263 song2fnotes
/var/folders/co/coknbUWaExmsbK3adiW3-++++TI/-Tmp-//ccwttGXi.s:2183   .data:00000018 song2f
/var/folders/co/coknbUWaExmsbK3adiW3-++++TI/-Tmp-//ccwttGXi.s:2190   .progmem.data:000002c0 song2gnotes
/var/folders/co/coknbUWaExmsbK3adiW3-++++TI/-Tmp-//ccwttGXi.s:2263   .data:0000001c song2g
/var/folders/co/coknbUWaExmsbK3adiW3-++++TI/-Tmp-//ccwttGXi.s:2308   .progmem.data:0000030d about
/var/folders/co/coknbUWaExmsbK3adiW3-++++TI/-Tmp-//ccwttGXi.s:2316   .progmem.data:000003ca version
                            *COM*:00000001 ch1nextscale
                            *COM*:00000001 ch2nextscale

UNDEFINED SYMBOLS
__mulhi3
__do_copy_data
__do_clear_bss
