GAS LISTING /var/folders/co/coknbUWaExmsbK3adiW3-++++TI/-Tmp-//ccMZ4o1l.s 			page 1


   1               		.file	"firefly.c"
   2               		.arch attiny45
   3               	__SREG__ = 0x3f
   4               	__SP_H__ = 0x3e
   5               	__SP_L__ = 0x3d
   6               	__tmp_reg__ = 0
   7               	__zero_reg__ = 1
   8               		.global __do_copy_data
   9               		.global __do_clear_bss
  17               	.Ltext0:
  18               	.global	mood_count
  19               		.data
  22               	mood_count:
  23 0000 1E00      		.word	30
  24               	.global	mood
  27               	mood:
  28 0002 02        		.byte	2
  29               	.global	version
  30               		.section	.progmem.data,"a",@progbits
  33               	version:
  34 0000 2452 6576 		.string	"$Revision: 1.41 $ $Date: 2007/01/10 04:35:55 $"
  34      6973 696F 
  34      6E3A 2031 
  34      2E34 3120 
  34      2420 2444 
  35               	.global	about
  38               	about:
  39 002f 4A61 7220 		.ascii	"Jar of Fireflies\nDesign and Implementation by Xander Hudson"
  39      6F66 2046 
  39      6972 6566 
  39      6C69 6573 
  39      0A44 6573 
  40 006a 2028 6A61 		.ascii	" (jar@synoptic.org)\nIdea and Inspiration by Kayobi Tierney\n"
  40      7240 7379 
  40      6E6F 7074 
  40      6963 2E6F 
  40      7267 290A 
  41 00a5 5370 6563 		.ascii	"Specia"
  41      6961 
  42 00ab 6C20 7468 		.string	"l thanks to Katie Horn for getting me to think about electronics"
  42      616E 6B73 
  42      2074 6F20 
  42      4B61 7469 
  42      6520 486F 
  43               	.global	bitmasks
  46               	bitmasks:
  47 00ec 00        		.byte	0
  48 00ed 01        		.byte	1
  49 00ee 03        		.byte	3
  50 00ef 07        		.byte	7
  51 00f0 0F        		.byte	15
  52 00f1 1F        		.byte	31
  53 00f2 3F        		.byte	63
  54 00f3 7F        		.byte	127
  55 00f4 FF        		.byte	-1
  56               	.global	songs
  57               		.data
GAS LISTING /var/folders/co/coknbUWaExmsbK3adiW3-++++TI/-Tmp-//ccMZ4o1l.s 			page 2


  60               	songs:
  61 0003 0000      		.word	song2a
  62 0005 0000      		.word	song2b
  63 0007 0000      		.word	song2b
  64 0009 0000      		.word	song2c
  65 000b 0000      		.word	song2c
  66 000d 0000      		.word	song2c
  67 000f 0000      		.word	song2d
  68 0011 0000      		.word	song2d
  69 0013 0000      		.word	song2e
  70 0015 0000      		.word	song2e
  71 0017 0000      		.word	song2e
  72 0019 0000      		.word	song2f
  73 001b 0000      		.word	song2f
  74 001d 0000      		.word	song2g
  75 001f 0000      		.word	song2g
  76 0021 0000      		.word	song2g
  77               	.global	bootsongs
  80               	bootsongs:
  81 0023 0000      		.word	bootsong
  82               	.global	song2g
  85               	song2g:
  86 0025 4400      		.word	68
  87 0027 0000      		.word	song2gnotes
  88               	.global	song2gnotes
  89               		.section	.progmem.data
  92               	song2gnotes:
  93 00f5 02        		.byte	2
  94 00f6 2A        		.byte	42
  95 00f7 63        		.byte	99
  96 00f8 79        		.byte	121
  97 00f9 60        		.byte	96
  98 00fa 2A        		.byte	42
  99 00fb 03        		.byte	3
 100 00fc 01        		.byte	1
 101 00fd 01        		.byte	1
 102 00fe 01        		.byte	1
 103 00ff 01        		.byte	1
 104 0100 01        		.byte	1
 105 0101 0C        		.byte	12
 106 0102 19        		.byte	25
 107 0103 29        		.byte	41
 108 0104 3C        		.byte	60
 109 0105 4D        		.byte	77
 110 0106 56        		.byte	86
 111 0107 5B        		.byte	91
 112 0108 64        		.byte	100
 113 0109 76        		.byte	118
 114 010a 88        		.byte	-120
 115 010b 90        		.byte	-112
 116 010c 8F        		.byte	-113
 117 010d 8D        		.byte	-115
 118 010e 92        		.byte	-110
 119 010f 99        		.byte	-103
 120 0110 9B        		.byte	-101
 121 0111 99        		.byte	-103
 122 0112 98        		.byte	-104
GAS LISTING /var/folders/co/coknbUWaExmsbK3adiW3-++++TI/-Tmp-//ccMZ4o1l.s 			page 3


 123 0113 9B        		.byte	-101
 124 0114 9A        		.byte	-102
 125 0115 94        		.byte	-108
 126 0116 8D        		.byte	-115
 127 0117 8E        		.byte	-114
 128 0118 98        		.byte	-104
 129 0119 9F        		.byte	-97
 130 011a 9A        		.byte	-102
 131 011b 8E        		.byte	-114
 132 011c 88        		.byte	-120
 133 011d 8D        		.byte	-115
 134 011e 98        		.byte	-104
 135 011f 99        		.byte	-103
 136 0120 8F        		.byte	-113
 137 0121 84        		.byte	-124
 138 0122 7E        		.byte	126
 139 0123 7C        		.byte	124
 140 0124 78        		.byte	120
 141 0125 6F        		.byte	111
 142 0126 65        		.byte	101
 143 0127 5C        		.byte	92
 144 0128 53        		.byte	83
 145 0129 48        		.byte	72
 146 012a 3B        		.byte	59
 147 012b 31        		.byte	49
 148 012c 2B        		.byte	43
 149 012d 26        		.byte	38
 150 012e 1E        		.byte	30
 151 012f 15        		.byte	21
 152 0130 0F        		.byte	15
 153 0131 0B        		.byte	11
 154 0132 08        		.byte	8
 155 0133 05        		.byte	5
 156 0134 03        		.byte	3
 157 0135 01        		.byte	1
 158 0136 01        		.byte	1
 159 0137 00        		.byte	0
 160 0138 00        		.byte	0
 161               	.global	song2f
 162               		.data
 165               	song2f:
 166 0029 5D00      		.word	93
 167 002b 0000      		.word	song2fnotes
 168               	.global	song2fnotes
 169               		.section	.progmem.data
 172               	song2fnotes:
 173 0139 02        		.byte	2
 174 013a 24        		.byte	36
 175 013b 5E        		.byte	94
 176 013c 82        		.byte	-126
 177 013d 79        		.byte	121
 178 013e 4F        		.byte	79
 179 013f 1B        		.byte	27
 180 0140 01        		.byte	1
 181 0141 01        		.byte	1
 182 0142 01        		.byte	1
 183 0143 01        		.byte	1
GAS LISTING /var/folders/co/coknbUWaExmsbK3adiW3-++++TI/-Tmp-//ccMZ4o1l.s 			page 4


 184 0144 01        		.byte	1
 185 0145 01        		.byte	1
 186 0146 05        		.byte	5
 187 0147 10        		.byte	16
 188 0148 1E        		.byte	30
 189 0149 2D        		.byte	45
 190 014a 3B        		.byte	59
 191 014b 47        		.byte	71
 192 014c 52        		.byte	82
 193 014d 5E        		.byte	94
 194 014e 6B        		.byte	107
 195 014f 77        		.byte	119
 196 0150 82        		.byte	-126
 197 0151 89        		.byte	-119
 198 0152 8E        		.byte	-114
 199 0153 93        		.byte	-109
 200 0154 97        		.byte	-105
 201 0155 9A        		.byte	-102
 202 0156 99        		.byte	-103
 203 0157 95        		.byte	-107
 204 0158 90        		.byte	-112
 205 0159 8D        		.byte	-115
 206 015a 8D        		.byte	-115
 207 015b 8F        		.byte	-113
 208 015c 8F        		.byte	-113
 209 015d 8C        		.byte	-116
 210 015e 86        		.byte	-122
 211 015f 83        		.byte	-125
 212 0160 87        		.byte	-121
 213 0161 91        		.byte	-111
 214 0162 A0        		.byte	-96
 215 0163 AB        		.byte	-85
 216 0164 AC        		.byte	-84
 217 0165 A3        		.byte	-93
 218 0166 96        		.byte	-106
 219 0167 8D        		.byte	-115
 220 0168 8C        		.byte	-116
 221 0169 91        		.byte	-111
 222 016a 97        		.byte	-105
 223 016b 98        		.byte	-104
 224 016c 93        		.byte	-109
 225 016d 8A        		.byte	-118
 226 016e 86        		.byte	-122
 227 016f 88        		.byte	-120
 228 0170 93        		.byte	-109
 229 0171 9F        		.byte	-97
 230 0172 A5        		.byte	-91
 231 0173 A2        		.byte	-94
 232 0174 98        		.byte	-104
 233 0175 8C        		.byte	-116
 234 0176 84        		.byte	-124
 235 0177 81        		.byte	-127
 236 0178 83        		.byte	-125
 237 0179 84        		.byte	-124
 238 017a 83        		.byte	-125
 239 017b 7F        		.byte	127
 240 017c 7B        		.byte	123
GAS LISTING /var/folders/co/coknbUWaExmsbK3adiW3-++++TI/-Tmp-//ccMZ4o1l.s 			page 5


 241 017d 77        		.byte	119
 242 017e 74        		.byte	116
 243 017f 70        		.byte	112
 244 0180 69        		.byte	105
 245 0181 60        		.byte	96
 246 0182 56        		.byte	86
 247 0183 4D        		.byte	77
 248 0184 45        		.byte	69
 249 0185 3E        		.byte	62
 250 0186 36        		.byte	54
 251 0187 2D        		.byte	45
 252 0188 26        		.byte	38
 253 0189 1F        		.byte	31
 254 018a 1B        		.byte	27
 255 018b 17        		.byte	23
 256 018c 13        		.byte	19
 257 018d 0E        		.byte	14
 258 018e 0A        		.byte	10
 259 018f 06        		.byte	6
 260 0190 04        		.byte	4
 261 0191 02        		.byte	2
 262 0192 01        		.byte	1
 263 0193 01        		.byte	1
 264 0194 00        		.byte	0
 265 0195 00        		.byte	0
 266               	.global	song2e
 267               		.data
 270               	song2e:
 271 002d 8800      		.word	136
 272 002f 0000      		.word	song2enotes
 273               	.global	song2enotes
 274               		.section	.progmem.data
 277               	song2enotes:
 278 0196 01        		.byte	1
 279 0197 1A        		.byte	26
 280 0198 49        		.byte	73
 281 0199 74        		.byte	116
 282 019a 83        		.byte	-125
 283 019b 73        		.byte	115
 284 019c 50        		.byte	80
 285 019d 27        		.byte	39
 286 019e 08        		.byte	8
 287 019f 01        		.byte	1
 288 01a0 01        		.byte	1
 289 01a1 01        		.byte	1
 290 01a2 01        		.byte	1
 291 01a3 01        		.byte	1
 292 01a4 01        		.byte	1
 293 01a5 01        		.byte	1
 294 01a6 06        		.byte	6
 295 01a7 0F        		.byte	15
 296 01a8 1A        		.byte	26
 297 01a9 24        		.byte	36
 298 01aa 2F        		.byte	47
 299 01ab 3A        		.byte	58
 300 01ac 46        		.byte	70
 301 01ad 52        		.byte	82
GAS LISTING /var/folders/co/coknbUWaExmsbK3adiW3-++++TI/-Tmp-//ccMZ4o1l.s 			page 6


 302 01ae 5B        		.byte	91
 303 01af 62        		.byte	98
 304 01b0 66        		.byte	102
 305 01b1 6A        		.byte	106
 306 01b2 6F        		.byte	111
 307 01b3 77        		.byte	119
 308 01b4 83        		.byte	-125
 309 01b5 90        		.byte	-112
 310 01b6 9A        		.byte	-102
 311 01b7 9D        		.byte	-99
 312 01b8 99        		.byte	-103
 313 01b9 90        		.byte	-112
 314 01ba 89        		.byte	-119
 315 01bb 86        		.byte	-122
 316 01bc 89        		.byte	-119
 317 01bd 92        		.byte	-110
 318 01be 9A        		.byte	-102
 319 01bf 9E        		.byte	-98
 320 01c0 9C        		.byte	-100
 321 01c1 95        		.byte	-107
 322 01c2 8D        		.byte	-115
 323 01c3 89        		.byte	-119
 324 01c4 8A        		.byte	-118
 325 01c5 8F        		.byte	-113
 326 01c6 97        		.byte	-105
 327 01c7 9D        		.byte	-99
 328 01c8 9E        		.byte	-98
 329 01c9 9B        		.byte	-101
 330 01ca 97        		.byte	-105
 331 01cb 94        		.byte	-108
 332 01cc 96        		.byte	-106
 333 01cd 9A        		.byte	-102
 334 01ce 9E        		.byte	-98
 335 01cf A0        		.byte	-96
 336 01d0 9E        		.byte	-98
 337 01d1 99        		.byte	-103
 338 01d2 94        		.byte	-108
 339 01d3 90        		.byte	-112
 340 01d4 91        		.byte	-111
 341 01d5 93        		.byte	-109
 342 01d6 96        		.byte	-106
 343 01d7 96        		.byte	-106
 344 01d8 92        		.byte	-110
 345 01d9 8C        		.byte	-116
 346 01da 85        		.byte	-123
 347 01db 82        		.byte	-126
 348 01dc 83        		.byte	-125
 349 01dd 87        		.byte	-121
 350 01de 8C        		.byte	-116
 351 01df 8F        		.byte	-113
 352 01e0 90        		.byte	-112
 353 01e1 8E        		.byte	-114
 354 01e2 8D        		.byte	-115
 355 01e3 8D        		.byte	-115
 356 01e4 90        		.byte	-112
 357 01e5 95        		.byte	-107
 358 01e6 99        		.byte	-103
GAS LISTING /var/folders/co/coknbUWaExmsbK3adiW3-++++TI/-Tmp-//ccMZ4o1l.s 			page 7


 359 01e7 9C        		.byte	-100
 360 01e8 9D        		.byte	-99
 361 01e9 9D        		.byte	-99
 362 01ea 9D        		.byte	-99
 363 01eb A0        		.byte	-96
 364 01ec A4        		.byte	-92
 365 01ed A7        		.byte	-89
 366 01ee A7        		.byte	-89
 367 01ef A1        		.byte	-95
 368 01f0 99        		.byte	-103
 369 01f1 91        		.byte	-111
 370 01f2 8E        		.byte	-114
 371 01f3 8F        		.byte	-113
 372 01f4 95        		.byte	-107
 373 01f5 9A        		.byte	-102
 374 01f6 9B        		.byte	-101
 375 01f7 95        		.byte	-107
 376 01f8 89        		.byte	-119
 377 01f9 7C        		.byte	124
 378 01fa 73        		.byte	115
 379 01fb 70        		.byte	112
 380 01fc 74        		.byte	116
 381 01fd 7B        		.byte	123
 382 01fe 80        		.byte	-128
 383 01ff 80        		.byte	-128
 384 0200 79        		.byte	121
 385 0201 6E        		.byte	110
 386 0202 63        		.byte	99
 387 0203 5B        		.byte	91
 388 0204 58        		.byte	88
 389 0205 58        		.byte	88
 390 0206 59        		.byte	89
 391 0207 57        		.byte	87
 392 0208 53        		.byte	83
 393 0209 4B        		.byte	75
 394 020a 42        		.byte	66
 395 020b 39        		.byte	57
 396 020c 32        		.byte	50
 397 020d 2C        		.byte	44
 398 020e 26        		.byte	38
 399 020f 22        		.byte	34
 400 0210 1D        		.byte	29
 401 0211 19        		.byte	25
 402 0212 14        		.byte	20
 403 0213 11        		.byte	17
 404 0214 0D        		.byte	13
 405 0215 09        		.byte	9
 406 0216 07        		.byte	7
 407 0217 04        		.byte	4
 408 0218 03        		.byte	3
 409 0219 01        		.byte	1
 410 021a 01        		.byte	1
 411 021b 00        		.byte	0
 412 021c 01        		.byte	1
 413 021d 00        		.byte	0
 414               	.global	song2d
 415               		.data
GAS LISTING /var/folders/co/coknbUWaExmsbK3adiW3-++++TI/-Tmp-//ccMZ4o1l.s 			page 8


 418               	song2d:
 419 0031 6300      		.word	99
 420 0033 0000      		.word	song2dnotes
 421               	.global	song2dnotes
 422               		.section	.progmem.data
 425               	song2dnotes:
 426 021e 01        		.byte	1
 427 021f 1B        		.byte	27
 428 0220 48        		.byte	72
 429 0221 6D        		.byte	109
 430 0222 79        		.byte	121
 431 0223 68        		.byte	104
 432 0224 3D        		.byte	61
 433 0225 11        		.byte	17
 434 0226 01        		.byte	1
 435 0227 01        		.byte	1
 436 0228 01        		.byte	1
 437 0229 01        		.byte	1
 438 022a 01        		.byte	1
 439 022b 01        		.byte	1
 440 022c 01        		.byte	1
 441 022d 0B        		.byte	11
 442 022e 15        		.byte	21
 443 022f 22        		.byte	34
 444 0230 30        		.byte	48
 445 0231 3C        		.byte	60
 446 0232 46        		.byte	70
 447 0233 4D        		.byte	77
 448 0234 56        		.byte	86
 449 0235 63        		.byte	99
 450 0236 73        		.byte	115
 451 0237 80        		.byte	-128
 452 0238 87        		.byte	-121
 453 0239 87        		.byte	-121
 454 023a 86        		.byte	-122
 455 023b 88        		.byte	-120
 456 023c 8D        		.byte	-115
 457 023d 90        		.byte	-112
 458 023e 8F        		.byte	-113
 459 023f 8B        		.byte	-117
 460 0240 8A        		.byte	-118
 461 0241 8D        		.byte	-115
 462 0242 93        		.byte	-109
 463 0243 94        		.byte	-108
 464 0244 8E        		.byte	-114
 465 0245 83        		.byte	-125
 466 0246 7B        		.byte	123
 467 0247 7E        		.byte	126
 468 0248 8A        		.byte	-118
 469 0249 99        		.byte	-103
 470 024a A4        		.byte	-92
 471 024b A6        		.byte	-90
 472 024c A1        		.byte	-95
 473 024d 9C        		.byte	-100
 474 024e 9A        		.byte	-102
 475 024f 9A        		.byte	-102
 476 0250 99        		.byte	-103
GAS LISTING /var/folders/co/coknbUWaExmsbK3adiW3-++++TI/-Tmp-//ccMZ4o1l.s 			page 9


 477 0251 97        		.byte	-105
 478 0252 96        		.byte	-106
 479 0253 9B        		.byte	-101
 480 0254 A3        		.byte	-93
 481 0255 A9        		.byte	-87
 482 0256 A6        		.byte	-90
 483 0257 98        		.byte	-104
 484 0258 88        		.byte	-120
 485 0259 7E        		.byte	126
 486 025a 80        		.byte	-128
 487 025b 8B        		.byte	-117
 488 025c 97        		.byte	-105
 489 025d 9C        		.byte	-100
 490 025e 99        		.byte	-103
 491 025f 92        		.byte	-110
 492 0260 8C        		.byte	-116
 493 0261 88        		.byte	-120
 494 0262 83        		.byte	-125
 495 0263 7B        		.byte	123
 496 0264 73        		.byte	115
 497 0265 6E        		.byte	110
 498 0266 6E        		.byte	110
 499 0267 70        		.byte	112
 500 0268 6E        		.byte	110
 501 0269 64        		.byte	100
 502 026a 56        		.byte	86
 503 026b 49        		.byte	73
 504 026c 41        		.byte	65
 505 026d 3E        		.byte	62
 506 026e 3C        		.byte	60
 507 026f 3A        		.byte	58
 508 0270 34        		.byte	52
 509 0271 2E        		.byte	46
 510 0272 28        		.byte	40
 511 0273 23        		.byte	35
 512 0274 1F        		.byte	31
 513 0275 19        		.byte	25
 514 0276 14        		.byte	20
 515 0277 0F        		.byte	15
 516 0278 0B        		.byte	11
 517 0279 08        		.byte	8
 518 027a 06        		.byte	6
 519 027b 04        		.byte	4
 520 027c 02        		.byte	2
 521 027d 01        		.byte	1
 522 027e 01        		.byte	1
 523 027f 00        		.byte	0
 524 0280 00        		.byte	0
 525               	.global	song2c
 526               		.data
 529               	song2c:
 530 0035 8200      		.word	130
 531 0037 0000      		.word	song2cnotes
 532               	.global	song2cnotes
 533               		.section	.progmem.data
 536               	song2cnotes:
 537 0281 02        		.byte	2
GAS LISTING /var/folders/co/coknbUWaExmsbK3adiW3-++++TI/-Tmp-//ccMZ4o1l.s 			page 10


 538 0282 19        		.byte	25
 539 0283 46        		.byte	70
 540 0284 75        		.byte	117
 541 0285 92        		.byte	-110
 542 0286 90        		.byte	-112
 543 0287 6F        		.byte	111
 544 0288 3D        		.byte	61
 545 0289 12        		.byte	18
 546 028a 01        		.byte	1
 547 028b 01        		.byte	1
 548 028c 01        		.byte	1
 549 028d 01        		.byte	1
 550 028e 01        		.byte	1
 551 028f 01        		.byte	1
 552 0290 01        		.byte	1
 553 0291 01        		.byte	1
 554 0292 08        		.byte	8
 555 0293 12        		.byte	18
 556 0294 1C        		.byte	28
 557 0295 27        		.byte	39
 558 0296 32        		.byte	50
 559 0297 3C        		.byte	60
 560 0298 45        		.byte	69
 561 0299 4E        		.byte	78
 562 029a 55        		.byte	85
 563 029b 5C        		.byte	92
 564 029c 63        		.byte	99
 565 029d 69        		.byte	105
 566 029e 6F        		.byte	111
 567 029f 76        		.byte	118
 568 02a0 7E        		.byte	126
 569 02a1 86        		.byte	-122
 570 02a2 8E        		.byte	-114
 571 02a3 95        		.byte	-107
 572 02a4 9B        		.byte	-101
 573 02a5 9F        		.byte	-97
 574 02a6 A1        		.byte	-95
 575 02a7 A0        		.byte	-96
 576 02a8 9C        		.byte	-100
 577 02a9 98        		.byte	-104
 578 02aa 92        		.byte	-110
 579 02ab 8B        		.byte	-117
 580 02ac 86        		.byte	-122
 581 02ad 81        		.byte	-127
 582 02ae 7E        		.byte	126
 583 02af 7D        		.byte	125
 584 02b0 7E        		.byte	126
 585 02b1 81        		.byte	-127
 586 02b2 86        		.byte	-122
 587 02b3 8C        		.byte	-116
 588 02b4 94        		.byte	-108
 589 02b5 9B        		.byte	-101
 590 02b6 A2        		.byte	-94
 591 02b7 A8        		.byte	-88
 592 02b8 AB        		.byte	-85
 593 02b9 AC        		.byte	-84
 594 02ba AB        		.byte	-85
GAS LISTING /var/folders/co/coknbUWaExmsbK3adiW3-++++TI/-Tmp-//ccMZ4o1l.s 			page 11


 595 02bb A8        		.byte	-88
 596 02bc A3        		.byte	-93
 597 02bd 9E        		.byte	-98
 598 02be 99        		.byte	-103
 599 02bf 95        		.byte	-107
 600 02c0 92        		.byte	-110
 601 02c1 90        		.byte	-112
 602 02c2 90        		.byte	-112
 603 02c3 92        		.byte	-110
 604 02c4 94        		.byte	-108
 605 02c5 97        		.byte	-105
 606 02c6 9A        		.byte	-102
 607 02c7 9D        		.byte	-99
 608 02c8 9E        		.byte	-98
 609 02c9 9E        		.byte	-98
 610 02ca 9D        		.byte	-99
 611 02cb 9A        		.byte	-102
 612 02cc 96        		.byte	-106
 613 02cd 91        		.byte	-111
 614 02ce 8D        		.byte	-115
 615 02cf 89        		.byte	-119
 616 02d0 86        		.byte	-122
 617 02d1 85        		.byte	-123
 618 02d2 84        		.byte	-124
 619 02d3 86        		.byte	-122
 620 02d4 88        		.byte	-120
 621 02d5 8B        		.byte	-117
 622 02d6 8F        		.byte	-113
 623 02d7 93        		.byte	-109
 624 02d8 95        		.byte	-107
 625 02d9 96        		.byte	-106
 626 02da 96        		.byte	-106
 627 02db 93        		.byte	-109
 628 02dc 8F        		.byte	-113
 629 02dd 8A        		.byte	-118
 630 02de 85        		.byte	-123
 631 02df 80        		.byte	-128
 632 02e0 7B        		.byte	123
 633 02e1 76        		.byte	118
 634 02e2 73        		.byte	115
 635 02e3 71        		.byte	113
 636 02e4 6F        		.byte	111
 637 02e5 6D        		.byte	109
 638 02e6 6C        		.byte	108
 639 02e7 69        		.byte	105
 640 02e8 66        		.byte	102
 641 02e9 62        		.byte	98
 642 02ea 5C        		.byte	92
 643 02eb 56        		.byte	86
 644 02ec 4E        		.byte	78
 645 02ed 46        		.byte	70
 646 02ee 3F        		.byte	63
 647 02ef 37        		.byte	55
 648 02f0 30        		.byte	48
 649 02f1 2A        		.byte	42
 650 02f2 25        		.byte	37
 651 02f3 21        		.byte	33
GAS LISTING /var/folders/co/coknbUWaExmsbK3adiW3-++++TI/-Tmp-//ccMZ4o1l.s 			page 12


 652 02f4 1D        		.byte	29
 653 02f5 19        		.byte	25
 654 02f6 16        		.byte	22
 655 02f7 13        		.byte	19
 656 02f8 10        		.byte	16
 657 02f9 0D        		.byte	13
 658 02fa 0A        		.byte	10
 659 02fb 07        		.byte	7
 660 02fc 05        		.byte	5
 661 02fd 03        		.byte	3
 662 02fe 02        		.byte	2
 663 02ff 01        		.byte	1
 664 0300 01        		.byte	1
 665 0301 00        		.byte	0
 666 0302 00        		.byte	0
 667               	.global	song2b
 668               		.data
 671               	song2b:
 672 0039 6C00      		.word	108
 673 003b 0000      		.word	song2bnotes
 674               	.global	song2bnotes
 675               		.section	.progmem.data
 678               	song2bnotes:
 679 0303 01        		.byte	1
 680 0304 1F        		.byte	31
 681 0305 59        		.byte	89
 682 0306 7E        		.byte	126
 683 0307 77        		.byte	119
 684 0308 55        		.byte	85
 685 0309 2A        		.byte	42
 686 030a 06        		.byte	6
 687 030b 01        		.byte	1
 688 030c 01        		.byte	1
 689 030d 01        		.byte	1
 690 030e 01        		.byte	1
 691 030f 01        		.byte	1
 692 0310 01        		.byte	1
 693 0311 08        		.byte	8
 694 0312 16        		.byte	22
 695 0313 25        		.byte	37
 696 0314 33        		.byte	51
 697 0315 40        		.byte	64
 698 0316 48        		.byte	72
 699 0317 50        		.byte	80
 700 0318 5C        		.byte	92
 701 0319 6C        		.byte	108
 702 031a 7A        		.byte	122
 703 031b 7F        		.byte	127
 704 031c 7A        		.byte	122
 705 031d 75        		.byte	117
 706 031e 7C        		.byte	124
 707 031f 8F        		.byte	-113
 708 0320 A3        		.byte	-93
 709 0321 A7        		.byte	-89
 710 0322 9B        		.byte	-101
 711 0323 8B        		.byte	-117
 712 0324 87        		.byte	-121
GAS LISTING /var/folders/co/coknbUWaExmsbK3adiW3-++++TI/-Tmp-//ccMZ4o1l.s 			page 13


 713 0325 8E        		.byte	-114
 714 0326 96        		.byte	-106
 715 0327 96        		.byte	-106
 716 0328 8D        		.byte	-115
 717 0329 83        		.byte	-125
 718 032a 81        		.byte	-127
 719 032b 85        		.byte	-123
 720 032c 8B        		.byte	-117
 721 032d 8F        		.byte	-113
 722 032e 92        		.byte	-110
 723 032f 95        		.byte	-107
 724 0330 98        		.byte	-104
 725 0331 96        		.byte	-106
 726 0332 90        		.byte	-112
 727 0333 8A        		.byte	-118
 728 0334 8A        		.byte	-118
 729 0335 91        		.byte	-111
 730 0336 96        		.byte	-106
 731 0337 93        		.byte	-109
 732 0338 89        		.byte	-119
 733 0339 84        		.byte	-124
 734 033a 89        		.byte	-119
 735 033b 99        		.byte	-103
 736 033c A6        		.byte	-90
 737 033d A7        		.byte	-89
 738 033e 9C        		.byte	-100
 739 033f 94        		.byte	-108
 740 0340 95        		.byte	-107
 741 0341 9C        		.byte	-100
 742 0342 A1        		.byte	-95
 743 0343 9C        		.byte	-100
 744 0344 93        		.byte	-109
 745 0345 8D        		.byte	-115
 746 0346 91        		.byte	-111
 747 0347 98        		.byte	-104
 748 0348 9D        		.byte	-99
 749 0349 9C        		.byte	-100
 750 034a 9A        		.byte	-102
 751 034b 9C        		.byte	-100
 752 034c A1        		.byte	-95
 753 034d A1        		.byte	-95
 754 034e 98        		.byte	-104
 755 034f 8C        		.byte	-116
 756 0350 85        		.byte	-123
 757 0351 83        		.byte	-125
 758 0352 82        		.byte	-126
 759 0353 7C        		.byte	124
 760 0354 72        		.byte	114
 761 0355 69        		.byte	105
 762 0356 66        		.byte	102
 763 0357 67        		.byte	103
 764 0358 65        		.byte	101
 765 0359 5D        		.byte	93
 766 035a 52        		.byte	82
 767 035b 4A        		.byte	74
 768 035c 44        		.byte	68
 769 035d 3F        		.byte	63
GAS LISTING /var/folders/co/coknbUWaExmsbK3adiW3-++++TI/-Tmp-//ccMZ4o1l.s 			page 14


 770 035e 37        		.byte	55
 771 035f 2E        		.byte	46
 772 0360 26        		.byte	38
 773 0361 20        		.byte	32
 774 0362 1D        		.byte	29
 775 0363 19        		.byte	25
 776 0364 14        		.byte	20
 777 0365 0F        		.byte	15
 778 0366 0B        		.byte	11
 779 0367 08        		.byte	8
 780 0368 06        		.byte	6
 781 0369 04        		.byte	4
 782 036a 02        		.byte	2
 783 036b 01        		.byte	1
 784 036c 01        		.byte	1
 785 036d 00        		.byte	0
 786 036e 00        		.byte	0
 787               	.global	song2a
 788               		.data
 791               	song2a:
 792 003d 7700      		.word	119
 793 003f 0000      		.word	song2anotes
 794               	.global	song2anotes
 795               		.section	.progmem.data
 798               	song2anotes:
 799 036f 02        		.byte	2
 800 0370 1D        		.byte	29
 801 0371 51        		.byte	81
 802 0372 7B        		.byte	123
 803 0373 82        		.byte	-126
 804 0374 68        		.byte	104
 805 0375 3F        		.byte	63
 806 0376 18        		.byte	24
 807 0377 02        		.byte	2
 808 0378 01        		.byte	1
 809 0379 01        		.byte	1
 810 037a 01        		.byte	1
 811 037b 01        		.byte	1
 812 037c 01        		.byte	1
 813 037d 01        		.byte	1
 814 037e 04        		.byte	4
 815 037f 0F        		.byte	15
 816 0380 1A        		.byte	26
 817 0381 24        		.byte	36
 818 0382 2E        		.byte	46
 819 0383 37        		.byte	55
 820 0384 42        		.byte	66
 821 0385 4F        		.byte	79
 822 0386 5B        		.byte	91
 823 0387 66        		.byte	102
 824 0388 6D        		.byte	109
 825 0389 73        		.byte	115
 826 038a 79        		.byte	121
 827 038b 83        		.byte	-125
 828 038c 8E        		.byte	-114
 829 038d 98        		.byte	-104
 830 038e 9B        		.byte	-101
GAS LISTING /var/folders/co/coknbUWaExmsbK3adiW3-++++TI/-Tmp-//ccMZ4o1l.s 			page 15


 831 038f 97        		.byte	-105
 832 0390 8D        		.byte	-115
 833 0391 85        		.byte	-123
 834 0392 83        		.byte	-125
 835 0393 87        		.byte	-121
 836 0394 90        		.byte	-112
 837 0395 99        		.byte	-103
 838 0396 9E        		.byte	-98
 839 0397 9E        		.byte	-98
 840 0398 9A        		.byte	-102
 841 0399 97        		.byte	-105
 842 039a 96        		.byte	-106
 843 039b 95        		.byte	-107
 844 039c 94        		.byte	-108
 845 039d 90        		.byte	-112
 846 039e 8B        		.byte	-117
 847 039f 88        		.byte	-120
 848 03a0 8A        		.byte	-118
 849 03a1 91        		.byte	-111
 850 03a2 9B        		.byte	-101
 851 03a3 A1        		.byte	-95
 852 03a4 A0        		.byte	-96
 853 03a5 99        		.byte	-103
 854 03a6 90        		.byte	-112
 855 03a7 8A        		.byte	-118
 856 03a8 8B        		.byte	-117
 857 03a9 91        		.byte	-111
 858 03aa 98        		.byte	-104
 859 03ab 9C        		.byte	-100
 860 03ac 9A        		.byte	-102
 861 03ad 94        		.byte	-108
 862 03ae 8D        		.byte	-115
 863 03af 8A        		.byte	-118
 864 03b0 8C        		.byte	-116
 865 03b1 91        		.byte	-111
 866 03b2 96        		.byte	-106
 867 03b3 99        		.byte	-103
 868 03b4 99        		.byte	-103
 869 03b5 98        		.byte	-104
 870 03b6 98        		.byte	-104
 871 03b7 9A        		.byte	-102
 872 03b8 9A        		.byte	-102
 873 03b9 96        		.byte	-106
 874 03ba 8E        		.byte	-114
 875 03bb 86        		.byte	-122
 876 03bc 81        		.byte	-127
 877 03bd 84        		.byte	-124
 878 03be 8E        		.byte	-114
 879 03bf 9C        		.byte	-100
 880 03c0 A8        		.byte	-88
 881 03c1 AA        		.byte	-86
 882 03c2 A1        		.byte	-95
 883 03c3 92        		.byte	-110
 884 03c4 83        		.byte	-125
 885 03c5 79        		.byte	121
 886 03c6 75        		.byte	117
 887 03c7 74        		.byte	116
GAS LISTING /var/folders/co/coknbUWaExmsbK3adiW3-++++TI/-Tmp-//ccMZ4o1l.s 			page 16


 888 03c8 74        		.byte	116
 889 03c9 73        		.byte	115
 890 03ca 71        		.byte	113
 891 03cb 6E        		.byte	110
 892 03cc 6D        		.byte	109
 893 03cd 6A        		.byte	106
 894 03ce 65        		.byte	101
 895 03cf 5C        		.byte	92
 896 03d0 50        		.byte	80
 897 03d1 43        		.byte	67
 898 03d2 3A        		.byte	58
 899 03d3 34        		.byte	52
 900 03d4 31        		.byte	49
 901 03d5 2E        		.byte	46
 902 03d6 2B        		.byte	43
 903 03d7 27        		.byte	39
 904 03d8 21        		.byte	33
 905 03d9 1B        		.byte	27
 906 03da 16        		.byte	22
 907 03db 12        		.byte	18
 908 03dc 0E        		.byte	14
 909 03dd 0B        		.byte	11
 910 03de 07        		.byte	7
 911 03df 05        		.byte	5
 912 03e0 03        		.byte	3
 913 03e1 01        		.byte	1
 914 03e2 01        		.byte	1
 915 03e3 00        		.byte	0
 916 03e4 01        		.byte	1
 917 03e5 00        		.byte	0
 918               	.global	bootsong
 919               		.data
 922               	bootsong:
 923 0041 1300      		.word	19
 924 0043 0000      		.word	bootsongnotes
 925               	.global	bootsongnotes
 926               		.section	.progmem.data
 929               	bootsongnotes:
 930 03e6 00        		.byte	0
 931 03e7 04        		.byte	4
 932 03e8 09        		.byte	9
 933 03e9 10        		.byte	16
 934 03ea 18        		.byte	24
 935 03eb 21        		.byte	33
 936 03ec 29        		.byte	41
 937 03ed 2F        		.byte	47
 938 03ee 32        		.byte	50
 939 03ef 31        		.byte	49
 940 03f0 2C        		.byte	44
 941 03f1 23        		.byte	35
 942 03f2 1A        		.byte	26
 943 03f3 11        		.byte	17
 944 03f4 0A        		.byte	10
 945 03f5 05        		.byte	5
 946 03f6 01        		.byte	1
 947 03f7 00        		.byte	0
 948 03f8 00        		.byte	0
GAS LISTING /var/folders/co/coknbUWaExmsbK3adiW3-++++TI/-Tmp-//ccMZ4o1l.s 			page 17


 949               		.text
 950               	.global	__vector_12
 952               	__vector_12:
 953               	.LFB2:
 954               	.LM1:
 955               	/* prologue: frame size=0 */
 956 0000 1F92      		push __zero_reg__
 957 0002 0F92      		push __tmp_reg__
 958 0004 0FB6      		in __tmp_reg__,__SREG__
 959 0006 0F92      		push __tmp_reg__
 960 0008 1124      		clr __zero_reg__
 961 000a 8F93      		push r24
 962 000c 9F93      		push r25
 963               	/* prologue end (size=7) */
 964               	.LM2:
 965 000e 899B      		sbis 49-0x20,1
 966 0010 00C0      		rjmp .L3
 967               	.LM3:
 968 0012 8091 0000 		lds r24,ch1restcount
 969 0016 8150      		subi r24,lo8(-(-1))
 970 0018 8093 0000 		sts ch1restcount,r24
 971 001c 8091 0000 		lds r24,ch1restcount
 972 0020 8823      		tst r24
 973 0022 01F4      		brne .L3
 974 0024 8998      		cbi 49-0x20,1
 975               	.L3:
 976               	.LM4:
 977 0026 8B9B      		sbis 49-0x20,3
 978 0028 00C0      		rjmp .L4
 979 002a 8091 0000 		lds r24,ch2restcount
 980 002e 8150      		subi r24,lo8(-(-1))
 981 0030 8093 0000 		sts ch2restcount,r24
 982 0034 8091 0000 		lds r24,ch2restcount
 983 0038 8823      		tst r24
 984 003a 01F4      		brne .L4
 985 003c 8B98      		cbi 49-0x20,3
 986               	.L4:
 987               	.LM5:
 988 003e 8C99      		sbic 49-0x20,4
 989 0040 00C0      		rjmp .L1
 990 0042 8091 0000 		lds r24,mood_count
 991 0046 9091 0000 		lds r25,(mood_count)+1
 992 004a 0197      		sbiw r24,1
 993 004c 9093 0000 		sts (mood_count)+1,r25
 994 0050 8093 0000 		sts mood_count,r24
 995 0054 892B      		or r24,r25
 996 0056 01F4      		brne .L1
 997 0058 8C9A      		sbi 49-0x20,4
 998               	.L1:
 999               	/* epilogue: frame size=0 */
 1000 005a 9F91      		pop r25
 1001 005c 8F91      		pop r24
 1002 005e 0F90      		pop __tmp_reg__
 1003 0060 0FBE      		out __SREG__,__tmp_reg__
 1004 0062 0F90      		pop __tmp_reg__
 1005 0064 1F90      		pop __zero_reg__
 1006 0066 1895      		reti
GAS LISTING /var/folders/co/coknbUWaExmsbK3adiW3-++++TI/-Tmp-//ccMZ4o1l.s 			page 18


 1007               	/* epilogue end (size=7) */
 1008               	/* function __vector_12 size 52 (38) */
 1009               	.LFE2:
 1011               		.lcomm x.7,1
 1012               	.global	__vector_10
 1014               	__vector_10:
 1015               	.LFB3:
 1016               	.LM6:
 1017               	/* prologue: frame size=0 */
 1018 0068 1F92      		push __zero_reg__
 1019 006a 0F92      		push __tmp_reg__
 1020 006c 0FB6      		in __tmp_reg__,__SREG__
 1021 006e 0F92      		push __tmp_reg__
 1022 0070 1124      		clr __zero_reg__
 1023 0072 8F93      		push r24
 1024 0074 9F93      		push r25
 1025               	/* prologue end (size=7) */
 1026               	.LM7:
 1027 0076 88BA      		out 56-0x20,r8
 1028               	.LM8:
 1029 0078 8091 0000 		lds r24,x.7
 1030 007c 8150      		subi r24,lo8(-(-1))
 1031 007e 8093 0000 		sts x.7,r24
 1032 0082 8F3F      		cpi r24,lo8(-1)
 1033 0084 01F0      		breq .+2
 1034 0086 00C0      		rjmp .L8
 1035               	.LM9:
 1036 0088 889B      		sbis 49-0x20,0
 1037 008a 00C0      		rjmp .L9
 1038               	.LM10:
 1039 008c 81B3      		in r24,49-0x20
 1040 008e 982F      		mov r25,r24
 1041 0090 9074      		andi r25,lo8(64)
 1042 0092 86FF      		sbrs r24,6
 1043 0094 00C0      		rjmp .L10
 1044               	.LM11:
 1045 0096 2090 0000 		lds r2,ch1nextnote
 1046               	.LM12:
 1047 009a 8E98      		cbi 49-0x20,6
 1048 009c 00C0      		rjmp .L13
 1049               	.L10:
 1050               	.LM13:
 1051 009e 292E      		mov r2,r25
 1052               	.LM14:
 1053 00a0 8091 0000 		lds r24,ch1restcount
 1054 00a4 8823      		tst r24
 1055 00a6 01F0      		breq .L13
 1056               	.LM15:
 1057 00a8 8898      		cbi 49-0x20,0
 1058               	.LM16:
 1059 00aa 899A      		sbi 49-0x20,1
 1060 00ac 00C0      		rjmp .L13
 1061               	.L9:
 1062               	.LM17:
 1063 00ae 8999      		sbic 49-0x20,1
 1064 00b0 00C0      		rjmp .L13
 1065 00b2 8E9B      		sbis 49-0x20,6
GAS LISTING /var/folders/co/coknbUWaExmsbK3adiW3-++++TI/-Tmp-//ccMZ4o1l.s 			page 19


 1066 00b4 00C0      		rjmp .L13
 1067               	.LM18:
 1068 00b6 2090 0000 		lds r2,ch1nextnote
 1069               	.LM19:
 1070 00ba 8E98      		cbi 49-0x20,6
 1071               	.LM20:
 1072 00bc 889A      		sbi 49-0x20,0
 1073               	.L13:
 1074               	.LM21:
 1075 00be 8A9B      		sbis 49-0x20,2
 1076 00c0 00C0      		rjmp .L15
 1077               	.LM22:
 1078 00c2 81B3      		in r24,49-0x20
 1079 00c4 8078      		andi r24,lo8(-128)
 1080 00c6 01F0      		breq .L16
 1081               	.LM23:
 1082 00c8 3090 0000 		lds r3,ch2nextnote
 1083               	.LM24:
 1084 00cc 8F98      		cbi 49-0x20,7
 1085 00ce 00C0      		rjmp .L19
 1086               	.L16:
 1087               	.LM25:
 1088 00d0 382E      		mov r3,r24
 1089               	.LM26:
 1090 00d2 8091 0000 		lds r24,ch2restcount
 1091 00d6 8823      		tst r24
 1092 00d8 01F0      		breq .L19
 1093               	.LM27:
 1094 00da 8A98      		cbi 49-0x20,2
 1095               	.LM28:
 1096 00dc 8B9A      		sbi 49-0x20,3
 1097 00de 00C0      		rjmp .L19
 1098               	.L15:
 1099               	.LM29:
 1100 00e0 8B99      		sbic 49-0x20,3
 1101 00e2 00C0      		rjmp .L19
 1102 00e4 8F9B      		sbis 49-0x20,7
 1103 00e6 00C0      		rjmp .L19
 1104               	.LM30:
 1105 00e8 3090 0000 		lds r3,ch2nextnote
 1106               	.LM31:
 1107 00ec 8F98      		cbi 49-0x20,7
 1108               	.LM32:
 1109 00ee 8A9A      		sbi 49-0x20,2
 1110               	.L19:
 1111               	.LM33:
 1112 00f0 8899      		sbic 49-0x20,0
 1113 00f2 4424      		clr r4
 1114               	.L21:
 1115               	.LM34:
 1116 00f4 8A99      		sbic 49-0x20,2
 1117 00f6 5524      		clr r5
 1118               	.L22:
 1119               	.LM35:
 1120 00f8 8899      		sbic 49-0x20,0
 1121 00fa 00C0      		rjmp .L24
 1122 00fc 8A9B      		sbis 49-0x20,2
GAS LISTING /var/folders/co/coknbUWaExmsbK3adiW3-++++TI/-Tmp-//ccMZ4o1l.s 			page 20


 1123 00fe 00C0      		rjmp .L23
 1124               	.L24:
 1125               	.LM36:
 1126 0100 8091 0000 		lds r24,masterpinmask
 1127 0104 9DEE      		ldi r25,lo8(-19)
 1128 0106 892E      		mov r8,r25
 1129 0108 882A      		or r8,r24
 1130 010a 00C0      		rjmp .L8
 1131               	.L23:
 1132               	.LM37:
 1133 010c 8DEE      		ldi r24,lo8(-19)
 1134 010e 882E      		mov r8,r24
 1135               	.L8:
 1136               	.LM38:
 1137 0110 889B      		sbis 49-0x20,0
 1138 0112 00C0      		rjmp .L26
 1139               	/* #APP */
 1140 0114 062C      		mov     __tmp_reg__, r6
 1141 0116 27FA      		bst     r2, 7
 1142 0118 420C      		add     r4, r2
 1143 011a 03F0      		brvs    von_181
 1144 011c 06F0      		brts    turnon_181
 1145 011e 00C0      		rjmp    turnoff_181
 1146               	von_181:
 1147 0120 06F0      		brts    turnoff_181
 1148               	turnon_181:
 1149 0122 0094      		com     __tmp_reg__
 1150 0124 8020      		and     r8, __tmp_reg__
 1151 0126 00C0      	rjmp    done_181
 1152               	turnoff_181:
 1153 0128 8028      		or      r8, __tmp_reg__
 1154               		done_181:
 1155               		
 1156               	/* #NOAPP */
 1157               	.L26:
 1158               	.LM39:
 1159 012a 8A9B      		sbis 49-0x20,2
 1160 012c 00C0      		rjmp .L6
 1161               	/* #APP */
 1162 012e 072C      		mov     __tmp_reg__, r7
 1163 0130 37FA      		bst     r3, 7
 1164 0132 530C      		add     r5, r3
 1165 0134 03F0      		brvs    von_187
 1166 0136 06F0      		brts    turnon_187
 1167 0138 00C0      		rjmp    turnoff_187
 1168               	von_187:
 1169 013a 06F0      		brts    turnoff_187
 1170               	turnon_187:
 1171 013c 0094      		com     __tmp_reg__
 1172 013e 8020      		and     r8, __tmp_reg__
 1173 0140 00C0      	rjmp    done_187
 1174               	turnoff_187:
 1175 0142 8028      		or      r8, __tmp_reg__
 1176               		done_187:
 1177               		
 1178               	/* #NOAPP */
 1179               	.L6:
GAS LISTING /var/folders/co/coknbUWaExmsbK3adiW3-++++TI/-Tmp-//ccMZ4o1l.s 			page 21


 1180               	/* epilogue: frame size=0 */
 1181 0144 9F91      		pop r25
 1182 0146 8F91      		pop r24
 1183 0148 0F90      		pop __tmp_reg__
 1184 014a 0FBE      		out __SREG__,__tmp_reg__
 1185 014c 0F90      		pop __tmp_reg__
 1186 014e 1F90      		pop __zero_reg__
 1187 0150 1895      		reti
 1188               	/* epilogue end (size=7) */
 1189               	/* function __vector_10 size 162 (148) */
 1190               	.LFE3:
 1192               		.data
 1193               	.LC0:
 1194 0045 08        		.byte	8
 1195 0046 04        		.byte	4
 1196 0047 01        		.byte	1
 1197               		.text
 1198               	.global	showbootup
 1200               	showbootup:
 1201               	.LFB5:
 1202               	.LM40:
 1203               	/* prologue: frame size=5 */
 1204 0152 EF92      		push r14
 1205 0154 FF92      		push r15
 1206 0156 0F93      		push r16
 1207 0158 1F93      		push r17
 1208 015a CF93      		push r28
 1209 015c DF93      		push r29
 1210 015e CDB7      		in r28,__SP_L__
 1211 0160 DEB7      		in r29,__SP_H__
 1212 0162 2597      		sbiw r28,5
 1213 0164 0FB6      		in __tmp_reg__,__SREG__
 1214 0166 F894      		cli
 1215 0168 DEBF      		out __SP_H__,r29
 1216 016a 0FBE      		out __SREG__,__tmp_reg__
 1217 016c CDBF      		out __SP_L__,r28
 1218               	/* prologue end (size=14) */
 1219               	.LM41:
 1220 016e 4091 0000 		lds r20,bootsongs
 1221 0172 5091 0000 		lds r21,(bootsongs)+1
 1222               	.LM42:
 1223 0176 80E1      		ldi r24,lo8(16)
 1224 0178 8C83      		std Y+4,r24
 1225 017a 24E0      		ldi r18,lo8(4)
 1226 017c E22E      		mov r14,r18
 1227 017e F12C      		mov r15,__zero_reg__
 1228 0180 EC0E      		add r14,r28
 1229 0182 FD1E      		adc r15,r29
 1230 0184 82E0      		ldi r24,lo8(2)
 1231 0186 8D83      		std Y+5,r24
 1232               	.LM43:
 1233 0188 0C2F      		mov r16,r28
 1234 018a 1D2F      		mov r17,r29
 1235 018c 0F5F      		subi r16,lo8(-(1))
 1236 018e 1F4F      		sbci r17,hi8(-(1))
 1237 0190 B12F      		mov r27,r17
 1238 0192 A02F      		mov r26,r16
GAS LISTING /var/folders/co/coknbUWaExmsbK3adiW3-++++TI/-Tmp-//ccMZ4o1l.s 			page 22


 1239 0194 E0E0      		ldi r30,lo8(.LC0)
 1240 0196 F0E0      		ldi r31,hi8(.LC0)
 1241 0198 83E0      		ldi r24,lo8(3)
 1242               	.L29:
 1243               	.LM44:
 1244 019a 0190      		ld r0,Z+
 1245 019c 0D92      		st X+,r0
 1246 019e 8150      		subi r24,lo8(-(-1))
 1247 01a0 01F4      		brne .L29
 1248               	.LM45:
 1249               	/* #APP */
 1250 01a2 F894      		cli
 1251               	.LM46:
 1252               	/* #NOAPP */
 1253 01a4 82E0      		ldi r24,lo8(2)
 1254 01a6 8093 0000 		sts ch1restcount,r24
 1255               	.LM47:
 1256 01aa 899A      		sbi 49-0x20,1
 1257               	.LM48:
 1258               	/* #APP */
 1259 01ac 7894      		sei
 1260               	.LM49:
 1261               	/* #NOAPP */
 1262 01ae 60E0      		ldi r22,lo8(0)
 1263               	.L49:
 1264               	.LM50:
 1265 01b0 FF2D      		mov r31,r15
 1266 01b2 EE2D      		mov r30,r14
 1267 01b4 E60F      		add r30,r22
 1268 01b6 F11D      		adc r31,__zero_reg__
 1269 01b8 8081      		ld r24,Z
 1270 01ba 8093 0000 		sts masterpinmask,r24
 1271 01be B12F      		mov r27,r17
 1272 01c0 A02F      		mov r26,r16
 1273 01c2 72E0      		ldi r23,lo8(2)
 1274               	.L48:
 1275               	.LM51:
 1276 01c4 6C90      		ld r6,X
 1277               	.LM52:
 1278 01c6 20E0      		ldi r18,lo8(0)
 1279 01c8 30E0      		ldi r19,hi8(0)
 1280               	.L68:
 1281 01ca F52F      		mov r31,r21
 1282 01cc E42F      		mov r30,r20
 1283 01ce 8081      		ld r24,Z
 1284 01d0 9181      		ldd r25,Z+1
 1285 01d2 2817      		cp r18,r24
 1286 01d4 3907      		cpc r19,r25
 1287 01d6 00F4      		brsh .L63
 1288               	.LBB2:
 1289               	.LM53:
 1290 01d8 F52F      		mov r31,r21
 1291 01da E42F      		mov r30,r20
 1292 01dc 8281      		ldd r24,Z+2
 1293 01de 9381      		ldd r25,Z+3
 1294 01e0 820F      		add r24,r18
 1295 01e2 931F      		adc r25,r19
GAS LISTING /var/folders/co/coknbUWaExmsbK3adiW3-++++TI/-Tmp-//ccMZ4o1l.s 			page 23


 1296 01e4 2F5F      		subi r18,lo8(-(1))
 1297 01e6 3F4F      		sbci r19,hi8(-(1))
 1298 01e8 F92F      		mov r31,r25
 1299 01ea E82F      		mov r30,r24
 1300               	/* #APP */
 1301 01ec C895      		lpm
 1302 01ee 802D      		mov r24, r0
 1303               		
 1304               	/* #NOAPP */
 1305               	.LBE2:
 1306 01f0 8093 0000 		sts ch1nextnote,r24
 1307               	.LM54:
 1308 01f4 8E9A      		sbi 49-0x20,6
 1309               	.LM55:
 1310 01f6 8E9B      		sbis 49-0x20,6
 1311 01f8 00C0      		rjmp .L65
 1312               	.L46:
 1313               	.LM56:
 1314 01fa 81B5      		in r24,65-0x20
 1315 01fc 8064      		ori r24,lo8(64)
 1316 01fe 81BD      		out 65-0x20,r24
 1317               	.LM57:
 1318 0200 85B7      		in r24,85-0x20
 1319 0202 877E      		andi r24,lo8(-25)
 1320 0204 85BF      		out 85-0x20,r24
 1321               	.LM58:
 1322 0206 85B7      		in r24,85-0x20
 1323 0208 8062      		ori r24,lo8(32)
 1324 020a 85BF      		out 85-0x20,r24
 1325               	/* #APP */
 1326 020c 8895      		sleep
 1327               		
 1328               	/* #NOAPP */
 1329 020e 85B7      		in r24,85-0x20
 1330 0210 8F7D      		andi r24,lo8(-33)
 1331 0212 85BF      		out 85-0x20,r24
 1332 0214 8E99      		sbic 49-0x20,6
 1333 0216 00C0      		rjmp .L46
 1334               	.L65:
 1335               	.LM59:
 1336 0218 2F5F      		subi r18,lo8(-(1))
 1337 021a 3F4F      		sbci r19,hi8(-(1))
 1338 021c 00C0      		rjmp .L68
 1339               	.L63:
 1340               	.LM60:
 1341 021e 7150      		subi r23,lo8(-(-1))
 1342 0220 1196      		adiw r26,1
 1343 0222 77FF      		sbrs r23,7
 1344 0224 00C0      		rjmp .L48
 1345               	.LM61:
 1346 0226 6F5F      		subi r22,lo8(-(1))
 1347 0228 6230      		cpi r22,lo8(2)
 1348 022a 00F4      		brsh .+2
 1349 022c 00C0      		rjmp .L49
 1350               	.LM62:
 1351               	/* #APP */
 1352 022e F894      		cli
GAS LISTING /var/folders/co/coknbUWaExmsbK3adiW3-++++TI/-Tmp-//ccMZ4o1l.s 			page 24


 1353               	.LM63:
 1354               	/* #NOAPP */
 1355 0230 81E0      		ldi r24,lo8(1)
 1356 0232 8093 0000 		sts ch1restcount,r24
 1357               	.LM64:
 1358               	/* #APP */
 1359 0236 7894      		sei
 1360               	.LM65:
 1361               	/* #NOAPP */
 1362 0238 889B      		sbis 49-0x20,0
 1363 023a 00C0      		rjmp .L67
 1364               	.L57:
 1365               	.LM66:
 1366 023c 81B5      		in r24,65-0x20
 1367 023e 8064      		ori r24,lo8(64)
 1368 0240 81BD      		out 65-0x20,r24
 1369               	.LM67:
 1370 0242 85B7      		in r24,85-0x20
 1371 0244 877E      		andi r24,lo8(-25)
 1372 0246 85BF      		out 85-0x20,r24
 1373               	.LM68:
 1374 0248 85B7      		in r24,85-0x20
 1375 024a 8062      		ori r24,lo8(32)
 1376 024c 85BF      		out 85-0x20,r24
 1377               	/* #APP */
 1378 024e 8895      		sleep
 1379               		
 1380               	/* #NOAPP */
 1381 0250 85B7      		in r24,85-0x20
 1382 0252 8F7D      		andi r24,lo8(-33)
 1383 0254 85BF      		out 85-0x20,r24
 1384 0256 8899      		sbic 49-0x20,0
 1385 0258 00C0      		rjmp .L57
 1386               	.L67:
 1387               	/* epilogue: frame size=5 */
 1388 025a 2596      		adiw r28,5
 1389 025c 0FB6      		in __tmp_reg__,__SREG__
 1390 025e F894      		cli
 1391 0260 DEBF      		out __SP_H__,r29
 1392 0262 0FBE      		out __SREG__,__tmp_reg__
 1393 0264 CDBF      		out __SP_L__,r28
 1394 0266 DF91      		pop r29
 1395 0268 CF91      		pop r28
 1396 026a 1F91      		pop r17
 1397 026c 0F91      		pop r16
 1398 026e FF90      		pop r15
 1399 0270 EF90      		pop r14
 1400 0272 0895      		ret
 1401               	/* epilogue end (size=13) */
 1402               	/* function showbootup size 160 (133) */
 1403               	.LFE5:
 1405               		.data
 1408               	lfsr.5:
 1409 0048 CE74      		.word	29902
 1410               		.text
 1411               	.global	randbits
 1413               	randbits:
GAS LISTING /var/folders/co/coknbUWaExmsbK3adiW3-++++TI/-Tmp-//ccMZ4o1l.s 			page 25


 1414               	.LFB10:
 1415               	.LM69:
 1416               	/* prologue: frame size=0 */
 1417               	/* prologue end (size=0) */
 1418 0274 E82F      		mov r30,r24
 1419               	.LM70:
 1420 0276 8091 0000 		lds r24,lfsr.5
 1421 027a 9091 0000 		lds r25,(lfsr.5)+1
 1422 027e 0097      		sbiw r24,0
 1423 0280 01F4      		brne .L70
 1424 0282 9DEE      		ldi r25,lo8(-19)
 1425 0284 82E1      		ldi r24,lo8(18)
 1426               	.L71:
 1427               	.LM71:
 1428 0286 98BB      		out 56-0x20,r25
 1429 0288 88BB      		out 56-0x20,r24
 1430 028a 00C0      		rjmp .L71
 1431               	.L70:
 1432 028c 282F      		mov r18,r24
 1433 028e 392F      		mov r19,r25
 1434 0290 220F      		lsl r18
 1435 0292 331F      		rol r19
 1436               	.LM72:
 1437 0294 97FF      		sbrs r25,7
 1438 0296 00C0      		rjmp .L75
 1439               	.LM73:
 1440 0298 87E8      		ldi r24,lo8(7559)
 1441 029a 9DE1      		ldi r25,hi8(7559)
 1442 029c 2827      		eor r18,r24
 1443 029e 3927      		eor r19,r25
 1444               	.L75:
 1445 02a0 3093 0000 		sts (lfsr.5)+1,r19
 1446 02a4 2093 0000 		sts lfsr.5,r18
 1447               	.LBB3:
 1448               	.LM74:
 1449 02a8 FF27      		clr r31
 1450 02aa E050      		subi r30,lo8(-(bitmasks))
 1451 02ac F040      		sbci r31,hi8(-(bitmasks))
 1452               	/* #APP */
 1453 02ae C895      		lpm
 1454 02b0 902D      		mov r25, r0
 1455               		
 1456               	/* #NOAPP */
 1457               	.LBE3:
 1458 02b2 8091 0000 		lds r24,lfsr.5
 1459 02b6 8923      		and r24,r25
 1460               	.LM75:
 1461 02b8 9927      		clr r25
 1462               	/* epilogue: frame size=0 */
 1463 02ba 0895      		ret
 1464               	/* epilogue end (size=1) */
 1465               	/* function randbits size 40 (39) */
 1466               	.LFE10:
 1468               	.global	randwaitval
 1470               	randwaitval:
 1471               	.LFB6:
 1472               	.LM76:
GAS LISTING /var/folders/co/coknbUWaExmsbK3adiW3-++++TI/-Tmp-//ccMZ4o1l.s 			page 26


 1473               	/* prologue: frame size=0 */
 1474 02bc 1F93      		push r17
 1475               	/* prologue end (size=1) */
 1476               	.LM77:
 1477 02be 84E0      		ldi r24,lo8(4)
 1478 02c0 00D0      		rcall randbits
 1479 02c2 1091 0000 		lds r17,mood
 1480 02c6 180F      		add r17,r24
 1481 02c8 84E0      		ldi r24,lo8(4)
 1482 02ca 00D0      		rcall randbits
 1483 02cc 180F      		add r17,r24
 1484 02ce 83E0      		ldi r24,lo8(3)
 1485 02d0 00D0      		rcall randbits
 1486 02d2 180F      		add r17,r24
 1487 02d4 82E0      		ldi r24,lo8(2)
 1488 02d6 00D0      		rcall randbits
 1489 02d8 180F      		add r17,r24
 1490 02da 82E0      		ldi r24,lo8(2)
 1491 02dc 00D0      		rcall randbits
 1492 02de 180F      		add r17,r24
 1493 02e0 83E0      		ldi r24,lo8(3)
 1494 02e2 00D0      		rcall randbits
 1495 02e4 181B      		sub r17,r24
 1496               	.LM78:
 1497 02e6 812F      		mov r24,r17
 1498 02e8 9927      		clr r25
 1499               	/* epilogue: frame size=0 */
 1500 02ea 1F91      		pop r17
 1501 02ec 0895      		ret
 1502               	/* epilogue end (size=2) */
 1503               	/* function randwaitval size 25 (22) */
 1504               	.LFE6:
 1506               	.global	randscaleval
 1508               	randscaleval:
 1509               	.LFB7:
 1510               	.LM79:
 1511               	/* prologue: frame size=0 */
 1512 02ee 1F93      		push r17
 1513               	/* prologue end (size=1) */
 1514               	.LM80:
 1515 02f0 86E0      		ldi r24,lo8(6)
 1516 02f2 00D0      		rcall randbits
 1517 02f4 182F      		mov r17,r24
 1518 02f6 85E0      		ldi r24,lo8(5)
 1519 02f8 00D0      		rcall randbits
 1520 02fa 180F      		add r17,r24
 1521 02fc 84E0      		ldi r24,lo8(4)
 1522 02fe 00D0      		rcall randbits
 1523 0300 180F      		add r17,r24
 1524 0302 83E0      		ldi r24,lo8(3)
 1525 0304 00D0      		rcall randbits
 1526 0306 180F      		add r17,r24
 1527 0308 82E0      		ldi r24,lo8(2)
 1528 030a 00D0      		rcall randbits
 1529 030c 180F      		add r17,r24
 1530 030e 165C      		subi r17,lo8(-(58))
 1531               	.LM81:
GAS LISTING /var/folders/co/coknbUWaExmsbK3adiW3-++++TI/-Tmp-//ccMZ4o1l.s 			page 27


 1532 0310 812F      		mov r24,r17
 1533 0312 9927      		clr r25
 1534               	/* epilogue: frame size=0 */
 1535 0314 1F91      		pop r17
 1536 0316 0895      		ret
 1537               	/* epilogue end (size=2) */
 1538               	/* function randscaleval size 21 (18) */
 1539               	.LFE7:
 1541               	.global	pickapin
 1543               	pickapin:
 1544               	.LFB8:
 1545               	.LM82:
 1546               	/* prologue: frame size=0 */
 1547 0318 CF93      		push r28
 1548               	/* prologue end (size=1) */
 1549 031a C82F      		mov r28,r24
 1550               	.LM83:
 1551 031c 88E0      		ldi r24,lo8(8)
 1552 031e 00D0      		rcall randbits
 1553               	.LM84:
 1554 0320 282F      		mov r18,r24
 1555 0322 3327      		clr r19
 1556 0324 932F      		mov r25,r19
 1557 0326 822F      		mov r24,r18
 1558 0328 880F      		lsl r24
 1559 032a 991F      		rol r25
 1560 032c 820F      		add r24,r18
 1561 032e 931F      		adc r25,r19
 1562 0330 892F      		mov r24,r25
 1563 0332 9927      		clr r25
 1564               	.LM85:
 1565 0334 9927      		clr r25
 1566 0336 8130      		cpi r24,1
 1567 0338 9105      		cpc r25,__zero_reg__
 1568 033a 01F0      		breq .L82
 1569               	.LM86:
 1570 033c 8230      		cpi r24,2
 1571 033e 9105      		cpc r25,__zero_reg__
 1572 0340 04F4      		brge .L87
 1573 0342 892B      		or r24,r25
 1574 0344 01F0      		breq .L80
 1575 0346 00C0      		rjmp .L86
 1576               	.L87:
 1577 0348 0297      		sbiw r24,2
 1578 034a 01F0      		breq .L84
 1579 034c 00C0      		rjmp .L86
 1580               	.L80:
 1581               	.LM87:
 1582 034e 88E0      		ldi r24,lo8(8)
 1583 0350 8C17      		cp r24,r28
 1584 0352 01F4      		brne .L79
 1585               	.L82:
 1586               	.LM88:
 1587 0354 84E0      		ldi r24,lo8(4)
 1588 0356 8C17      		cp r24,r28
 1589 0358 01F4      		brne .L79
 1590               	.L84:
GAS LISTING /var/folders/co/coknbUWaExmsbK3adiW3-++++TI/-Tmp-//ccMZ4o1l.s 			page 28


 1591               	.LM89:
 1592 035a 81E0      		ldi r24,lo8(1)
 1593 035c 8C17      		cp r24,r28
 1594 035e 01F4      		brne .L79
 1595               	.L86:
 1596               	.LM90:
 1597 0360 88E0      		ldi r24,lo8(8)
 1598               	.L79:
 1599               	.LM91:
 1600 0362 9927      		clr r25
 1601               	/* epilogue: frame size=0 */
 1602 0364 CF91      		pop r28
 1603 0366 0895      		ret
 1604               	/* epilogue end (size=2) */
 1605               	/* function pickapin size 41 (38) */
 1606               	.LFE8:
 1608               		.lcomm ticker.6,1
 1609               	.global	pickmaster
 1611               	pickmaster:
 1612               	.LFB9:
 1613               	.LM92:
 1614               	/* prologue: frame size=0 */
 1615               	/* prologue end (size=0) */
 1616               	.LM93:
 1617 0368 83E0      		ldi r24,lo8(3)
 1618 036a 00D0      		rcall randbits
 1619 036c 9091 0000 		lds r25,ticker.6
 1620 0370 8823      		tst r24
 1621 0372 01F4      		brne .L89
 1622               	.LM94:
 1623 0374 90FD      		sbrc r25,0
 1624 0376 00C0      		rjmp .L95
 1625 0378 82E0      		ldi r24,lo8(2)
 1626 037a 90E0      		ldi r25,hi8(2)
 1627 037c 0895      		ret
 1628               	.L89:
 1629               	.LM95:
 1630 037e 892F      		mov r24,r25
 1631 0380 8F5F      		subi r24,lo8(-(1))
 1632 0382 8093 0000 		sts ticker.6,r24
 1633 0386 80FF      		sbrs r24,0
 1634 0388 00C0      		rjmp .L93
 1635               	.L95:
 1636 038a 80E1      		ldi r24,lo8(16)
 1637 038c 90E0      		ldi r25,hi8(16)
 1638 038e 0895      		ret
 1639               	.L93:
 1640 0390 82E0      		ldi r24,lo8(2)
 1641 0392 90E0      		ldi r25,hi8(2)
 1642               	.LM96:
 1643 0394 0895      		ret
 1644               	/* epilogue: frame size=0 */
 1645               	/* epilogue: noreturn */
 1646               	/* epilogue end (size=0) */
 1647               	/* function pickmaster size 23 (23) */
 1648               	.LFE9:
 1650               	.global	pickasong
GAS LISTING /var/folders/co/coknbUWaExmsbK3adiW3-++++TI/-Tmp-//ccMZ4o1l.s 			page 29


 1652               	pickasong:
 1653               	.LFB11:
 1654               	.LM97:
 1655               	/* prologue: frame size=0 */
 1656               	/* prologue end (size=0) */
 1657               	.LM98:
 1658 0396 88E0      		ldi r24,lo8(8)
 1659 0398 00D0      		rcall randbits
 1660 039a E82F      		mov r30,r24
 1661 039c FF27      		clr r31
 1662 039e 74E0      		ldi r23,4
 1663 03a0 F695      	1:	lsr r31
 1664 03a2 E795      		ror r30
 1665 03a4 7A95      		dec r23
 1666 03a6 01F4      		brne 1b
 1667 03a8 EE0F      		add r30,r30
 1668 03aa FF1F      		adc r31,r31
 1669 03ac E050      		subi r30,lo8(-(songs))
 1670 03ae F040      		sbci r31,hi8(-(songs))
 1671               	.LM99:
 1672 03b0 8081      		ld r24,Z
 1673 03b2 9181      		ldd r25,Z+1
 1674               	/* epilogue: frame size=0 */
 1675 03b4 0895      		ret
 1676               	/* epilogue end (size=1) */
 1677               	/* function pickasong size 16 (15) */
 1678               	.LFE11:
 1680               		.lcomm ch1song.0,2
 1681               		.lcomm ch2song.1,2
 1682               		.lcomm ch1noteptr.2,2
 1683               		.lcomm ch2noteptr.3,2
 1684               		.lcomm temp.4,1
 1685               	.global	lighted_fireflies
 1687               	lighted_fireflies:
 1688               	.LFB14:
 1689               	.LM100:
 1690               	/* prologue: frame size=0 */
 1691               	/* prologue end (size=0) */
 1692               	.L129:
 1693               	.LM101:
 1694 03b6 8899      		sbic 49-0x20,0
 1695 03b8 00C0      		rjmp .L101
 1696               	.LM102:
 1697 03ba 8A9B      		sbis 49-0x20,2
 1698 03bc 00C0      		rjmp .L100
 1699               	.L101:
 1700               	.LM103:
 1701 03be 889B      		sbis 49-0x20,0
 1702 03c0 00C0      		rjmp .L102
 1703 03c2 8E99      		sbic 49-0x20,6
 1704 03c4 00C0      		rjmp .L102
 1705               	.LM104:
 1706 03c6 E091 0000 		lds r30,ch1song.0
 1707 03ca F091 0000 		lds r31,(ch1song.0)+1
 1708 03ce 2091 0000 		lds r18,ch1noteptr.2
 1709 03d2 3091 0000 		lds r19,(ch1noteptr.2)+1
 1710 03d6 8081      		ld r24,Z
GAS LISTING /var/folders/co/coknbUWaExmsbK3adiW3-++++TI/-Tmp-//ccMZ4o1l.s 			page 30


 1711 03d8 9181      		ldd r25,Z+1
 1712 03da 2817      		cp r18,r24
 1713 03dc 3907      		cpc r19,r25
 1714 03de 01F0      		breq .L102
 1715               	.LBB4:
 1716               	.LM105:
 1717 03e0 0280      		ldd __tmp_reg__,Z+2
 1718 03e2 F381      		ldd r31,Z+3
 1719 03e4 E02D      		mov r30,__tmp_reg__
 1720 03e6 E20F      		add r30,r18
 1721 03e8 F31F      		adc r31,r19
 1722 03ea 2F5F      		subi r18,lo8(-(1))
 1723 03ec 3F4F      		sbci r19,hi8(-(1))
 1724 03ee 3093 0000 		sts (ch1noteptr.2)+1,r19
 1725 03f2 2093 0000 		sts ch1noteptr.2,r18
 1726               	/* #APP */
 1727 03f6 C895      		lpm
 1728 03f8 802D      		mov r24, r0
 1729               		
 1730               	/* #NOAPP */
 1731               	.LBE4:
 1732               	.LM106:
 1733 03fa 9091 0000 		lds r25,ch1scale
 1734 03fe 282F      		mov r18,r24
 1735 0400 3327      		clr r19
 1736 0402 892F      		mov r24,r25
 1737 0404 9927      		clr r25
 1738 0406 732F      		mov r23,r19
 1739 0408 622F      		mov r22,r18
 1740 040a 00D0      		rcall __mulhi3
 1741 040c 892F      		mov r24,r25
 1742 040e 9927      		clr r25
 1743 0410 8093 0000 		sts temp.4,r24
 1744               	.LM107:
 1745               	/* #APP */
 1746 0414 F894      		cli
 1747               	.LM108:
 1748               	/* #NOAPP */
 1749 0416 8091 0000 		lds r24,temp.4
 1750 041a 8093 0000 		sts ch1nextnote,r24
 1751               	.LM109:
 1752 041e 8E9A      		sbi 49-0x20,6
 1753               	.LM110:
 1754               	/* #APP */
 1755 0420 7894      		sei
 1756               	.LM111:
 1757               	/* #NOAPP */
 1758 0422 00C0      		rjmp .L129
 1759               	.L102:
 1760               	.LM112:
 1761 0424 8A9B      		sbis 49-0x20,2
 1762 0426 00C0      		rjmp .L104
 1763 0428 8F99      		sbic 49-0x20,7
 1764 042a 00C0      		rjmp .L104
 1765               	.LM113:
 1766 042c E091 0000 		lds r30,ch2song.1
 1767 0430 F091 0000 		lds r31,(ch2song.1)+1
GAS LISTING /var/folders/co/coknbUWaExmsbK3adiW3-++++TI/-Tmp-//ccMZ4o1l.s 			page 31


 1768 0434 2091 0000 		lds r18,ch2noteptr.3
 1769 0438 3091 0000 		lds r19,(ch2noteptr.3)+1
 1770 043c 8081      		ld r24,Z
 1771 043e 9181      		ldd r25,Z+1
 1772 0440 2817      		cp r18,r24
 1773 0442 3907      		cpc r19,r25
 1774 0444 01F0      		breq .L104
 1775               	.LBB5:
 1776               	.LM114:
 1777 0446 0280      		ldd __tmp_reg__,Z+2
 1778 0448 F381      		ldd r31,Z+3
 1779 044a E02D      		mov r30,__tmp_reg__
 1780 044c E20F      		add r30,r18
 1781 044e F31F      		adc r31,r19
 1782 0450 2F5F      		subi r18,lo8(-(1))
 1783 0452 3F4F      		sbci r19,hi8(-(1))
 1784 0454 3093 0000 		sts (ch2noteptr.3)+1,r19
 1785 0458 2093 0000 		sts ch2noteptr.3,r18
 1786               	/* #APP */
 1787 045c C895      		lpm
 1788 045e 802D      		mov r24, r0
 1789               		
 1790               	/* #NOAPP */
 1791               	.LBE5:
 1792               	.LM115:
 1793 0460 9091 0000 		lds r25,ch2scale
 1794 0464 282F      		mov r18,r24
 1795 0466 3327      		clr r19
 1796 0468 892F      		mov r24,r25
 1797 046a 9927      		clr r25
 1798 046c 732F      		mov r23,r19
 1799 046e 622F      		mov r22,r18
 1800 0470 00D0      		rcall __mulhi3
 1801 0472 892F      		mov r24,r25
 1802 0474 9927      		clr r25
 1803 0476 8093 0000 		sts temp.4,r24
 1804               	.LM116:
 1805               	/* #APP */
 1806 047a F894      		cli
 1807               	.LM117:
 1808               	/* #NOAPP */
 1809 047c 8091 0000 		lds r24,temp.4
 1810 0480 8093 0000 		sts ch2nextnote,r24
 1811               	.LM118:
 1812 0484 8F9A      		sbi 49-0x20,7
 1813               	.LM119:
 1814               	/* #APP */
 1815 0486 7894      		sei
 1816               	.LM120:
 1817               	/* #NOAPP */
 1818 0488 00C0      		rjmp .L129
 1819               	.L104:
 1820               	.LM121:
 1821 048a 889B      		sbis 49-0x20,0
 1822 048c 00C0      		rjmp .L106
 1823 048e 8091 0000 		lds r24,ch1restcount
 1824 0492 8823      		tst r24
GAS LISTING /var/folders/co/coknbUWaExmsbK3adiW3-++++TI/-Tmp-//ccMZ4o1l.s 			page 32


 1825 0494 01F4      		brne .L106
 1826               	.LM122:
 1827 0496 00D0      		rcall randwaitval
 1828 0498 8093 0000 		sts temp.4,r24
 1829               	.LM123:
 1830               	/* #APP */
 1831 049c F894      		cli
 1832               	.LM124:
 1833               	/* #NOAPP */
 1834 049e 8091 0000 		lds r24,temp.4
 1835 04a2 8093 0000 		sts ch1restcount,r24
 1836               	.LM125:
 1837               	/* #APP */
 1838 04a6 7894      		sei
 1839               	.LM126:
 1840               	/* #NOAPP */
 1841 04a8 00C0      		rjmp .L129
 1842               	.L106:
 1843               	.LM127:
 1844 04aa 8A9B      		sbis 49-0x20,2
 1845 04ac 00C0      		rjmp .L100
 1846 04ae 8091 0000 		lds r24,ch2restcount
 1847 04b2 8823      		tst r24
 1848 04b4 01F4      		brne .L100
 1849               	.LM128:
 1850 04b6 00D0      		rcall randwaitval
 1851 04b8 8093 0000 		sts temp.4,r24
 1852               	.LM129:
 1853               	/* #APP */
 1854 04bc F894      		cli
 1855               	.LM130:
 1856               	/* #NOAPP */
 1857 04be 8091 0000 		lds r24,temp.4
 1858 04c2 8093 0000 		sts ch2restcount,r24
 1859               	.LM131:
 1860               	/* #APP */
 1861 04c6 7894      		sei
 1862               	.LM132:
 1863               	/* #NOAPP */
 1864 04c8 00C0      		rjmp .L129
 1865               	.L100:
 1866               	.LM133:
 1867 04ca 8899      		sbic 49-0x20,0
 1868 04cc 00C0      		rjmp .L108
 1869 04ce 8999      		sbic 49-0x20,1
 1870 04d0 00C0      		rjmp .L108
 1871 04d2 8E99      		sbic 49-0x20,6
 1872 04d4 00C0      		rjmp .L108
 1873               	.LM134:
 1874 04d6 00D0      		rcall pickasong
 1875 04d8 9093 0000 		sts (ch1song.0)+1,r25
 1876 04dc 8093 0000 		sts ch1song.0,r24
 1877               	.LM135:
 1878 04e0 1092 0000 		sts (ch1noteptr.2)+1,__zero_reg__
 1879 04e4 1092 0000 		sts ch1noteptr.2,__zero_reg__
 1880               	.LM136:
 1881 04e8 872D      		mov r24,r7
GAS LISTING /var/folders/co/coknbUWaExmsbK3adiW3-++++TI/-Tmp-//ccMZ4o1l.s 			page 33


 1882 04ea 00D0      		rcall pickapin
 1883 04ec 682E      		mov r6,r24
 1884               	.LM137:
 1885 04ee 00D0      		rcall randscaleval
 1886 04f0 8093 0000 		sts ch1scale,r24
 1887               	.LBB6:
 1888               	.LM138:
 1889 04f4 E091 0000 		lds r30,ch1song.0
 1890 04f8 F091 0000 		lds r31,(ch1song.0)+1
 1891 04fc 8091 0000 		lds r24,ch1noteptr.2
 1892 0500 9091 0000 		lds r25,(ch1noteptr.2)+1
 1893 0504 0280      		ldd __tmp_reg__,Z+2
 1894 0506 F381      		ldd r31,Z+3
 1895 0508 E02D      		mov r30,__tmp_reg__
 1896 050a E80F      		add r30,r24
 1897 050c F91F      		adc r31,r25
 1898 050e 0196      		adiw r24,1
 1899 0510 9093 0000 		sts (ch1noteptr.2)+1,r25
 1900 0514 8093 0000 		sts ch1noteptr.2,r24
 1901               	/* #APP */
 1902 0518 C895      		lpm
 1903 051a 802D      		mov r24, r0
 1904               		
 1905               	/* #NOAPP */
 1906               	.LBE6:
 1907               	.LM139:
 1908 051c 9091 0000 		lds r25,ch1scale
 1909 0520 282F      		mov r18,r24
 1910 0522 3327      		clr r19
 1911 0524 892F      		mov r24,r25
 1912 0526 9927      		clr r25
 1913 0528 732F      		mov r23,r19
 1914 052a 622F      		mov r22,r18
 1915 052c 00D0      		rcall __mulhi3
 1916 052e 892F      		mov r24,r25
 1917 0530 9927      		clr r25
 1918 0532 8093 0000 		sts temp.4,r24
 1919               	.LM140:
 1920 0536 8B9B      		sbis 49-0x20,3
 1921 0538 00C0      		rjmp .L109
 1922               	.LM141:
 1923 053a 00D0      		rcall pickmaster
 1924 053c 8093 0000 		sts masterpinmask,r24
 1925               	.L109:
 1926               	.LM142:
 1927               	/* #APP */
 1928 0540 F894      		cli
 1929               	.LM143:
 1930               	/* #NOAPP */
 1931 0542 8091 0000 		lds r24,temp.4
 1932 0546 8093 0000 		sts ch1nextnote,r24
 1933               	.LM144:
 1934 054a 8E9A      		sbi 49-0x20,6
 1935               	.LM145:
 1936               	/* #APP */
 1937 054c 7894      		sei
 1938               	.LM146:
GAS LISTING /var/folders/co/coknbUWaExmsbK3adiW3-++++TI/-Tmp-//ccMZ4o1l.s 			page 34


 1939               	/* #NOAPP */
 1940 054e 00C0      		rjmp .L129
 1941               	.L108:
 1942               	.LM147:
 1943 0550 8A99      		sbic 49-0x20,2
 1944 0552 00C0      		rjmp .L110
 1945 0554 8B99      		sbic 49-0x20,3
 1946 0556 00C0      		rjmp .L110
 1947 0558 8F99      		sbic 49-0x20,7
 1948 055a 00C0      		rjmp .L110
 1949               	.LM148:
 1950 055c 00D0      		rcall pickasong
 1951 055e 9093 0000 		sts (ch2song.1)+1,r25
 1952 0562 8093 0000 		sts ch2song.1,r24
 1953               	.LM149:
 1954 0566 1092 0000 		sts (ch2noteptr.3)+1,__zero_reg__
 1955 056a 1092 0000 		sts ch2noteptr.3,__zero_reg__
 1956               	.LM150:
 1957 056e 862D      		mov r24,r6
 1958 0570 00D0      		rcall pickapin
 1959 0572 782E      		mov r7,r24
 1960               	.LM151:
 1961 0574 00D0      		rcall randscaleval
 1962 0576 8093 0000 		sts ch2scale,r24
 1963               	.LBB7:
 1964               	.LM152:
 1965 057a E091 0000 		lds r30,ch2song.1
 1966 057e F091 0000 		lds r31,(ch2song.1)+1
 1967 0582 8091 0000 		lds r24,ch2noteptr.3
 1968 0586 9091 0000 		lds r25,(ch2noteptr.3)+1
 1969 058a 0280      		ldd __tmp_reg__,Z+2
 1970 058c F381      		ldd r31,Z+3
 1971 058e E02D      		mov r30,__tmp_reg__
 1972 0590 E80F      		add r30,r24
 1973 0592 F91F      		adc r31,r25
 1974 0594 0196      		adiw r24,1
 1975 0596 9093 0000 		sts (ch2noteptr.3)+1,r25
 1976 059a 8093 0000 		sts ch2noteptr.3,r24
 1977               	/* #APP */
 1978 059e C895      		lpm
 1979 05a0 802D      		mov r24, r0
 1980               		
 1981               	/* #NOAPP */
 1982               	.LBE7:
 1983               	.LM153:
 1984 05a2 9091 0000 		lds r25,ch2scale
 1985 05a6 282F      		mov r18,r24
 1986 05a8 3327      		clr r19
 1987 05aa 892F      		mov r24,r25
 1988 05ac 9927      		clr r25
 1989 05ae 732F      		mov r23,r19
 1990 05b0 622F      		mov r22,r18
 1991 05b2 00D0      		rcall __mulhi3
 1992 05b4 892F      		mov r24,r25
 1993 05b6 9927      		clr r25
 1994 05b8 8093 0000 		sts temp.4,r24
 1995               	.LM154:
GAS LISTING /var/folders/co/coknbUWaExmsbK3adiW3-++++TI/-Tmp-//ccMZ4o1l.s 			page 35


 1996 05bc 899B      		sbis 49-0x20,1
 1997 05be 00C0      		rjmp .L111
 1998               	.LM155:
 1999 05c0 00D0      		rcall pickmaster
 2000 05c2 8093 0000 		sts masterpinmask,r24
 2001               	.L111:
 2002               	.LM156:
 2003               	/* #APP */
 2004 05c6 F894      		cli
 2005               	.LM157:
 2006               	/* #NOAPP */
 2007 05c8 8091 0000 		lds r24,temp.4
 2008 05cc 8093 0000 		sts ch2nextnote,r24
 2009               	.LM158:
 2010 05d0 8F9A      		sbi 49-0x20,7
 2011               	.LM159:
 2012               	/* #APP */
 2013 05d2 7894      		sei
 2014               	.LM160:
 2015               	/* #NOAPP */
 2016 05d4 00C0      		rjmp .L129
 2017               	.L110:
 2018               	.LM161:
 2019 05d6 8C9B      		sbis 49-0x20,4
 2020 05d8 00C0      		rjmp .L112
 2021               	.LM162:
 2022 05da 85E0      		ldi r24,lo8(5)
 2023 05dc 00D0      		rcall randbits
 2024 05de 885F      		subi r24,lo8(-(8))
 2025 05e0 8093 0000 		sts mood,r24
 2026               	.LM163:
 2027 05e4 88E5      		ldi r24,lo8(600)
 2028 05e6 92E0      		ldi r25,hi8(600)
 2029 05e8 9093 0000 		sts (mood_count)+1,r25
 2030 05ec 8093 0000 		sts mood_count,r24
 2031               	.LM164:
 2032 05f0 8C98      		cbi 49-0x20,4
 2033               	.LM165:
 2034 05f2 00C0      		rjmp .L129
 2035               	.L112:
 2036               	.LM166:
 2037 05f4 81B5      		in r24,65-0x20
 2038 05f6 8064      		ori r24,lo8(64)
 2039 05f8 81BD      		out 65-0x20,r24
 2040               	.LM167:
 2041 05fa 899B      		sbis 49-0x20,1
 2042 05fc 00C0      		rjmp .L113
 2043 05fe 8B9B      		sbis 49-0x20,3
 2044 0600 00C0      		rjmp .L113
 2045               	.LM168:
 2046 0602 85B7      		in r24,85-0x20
 2047 0604 877E      		andi r24,lo8(-25)
 2048 0606 8061      		ori r24,lo8(16)
 2049 0608 85BF      		out 85-0x20,r24
 2050               	.LM169:
 2051 060a 85B7      		in r24,85-0x20
 2052 060c 8062      		ori r24,lo8(32)
GAS LISTING /var/folders/co/coknbUWaExmsbK3adiW3-++++TI/-Tmp-//ccMZ4o1l.s 			page 36


 2053 060e 85BF      		out 85-0x20,r24
 2054               	/* #APP */
 2055 0610 8895      		sleep
 2056               		
 2057               	/* #NOAPP */
 2058 0612 00C0      		rjmp .L128
 2059               	.L113:
 2060               	.LM170:
 2061 0614 85B7      		in r24,85-0x20
 2062 0616 877E      		andi r24,lo8(-25)
 2063 0618 85BF      		out 85-0x20,r24
 2064               	.LM171:
 2065 061a 85B7      		in r24,85-0x20
 2066 061c 8062      		ori r24,lo8(32)
 2067 061e 85BF      		out 85-0x20,r24
 2068               	/* #APP */
 2069 0620 8895      		sleep
 2070               		
 2071               	/* #NOAPP */
 2072               	.L128:
 2073 0622 85B7      		in r24,85-0x20
 2074 0624 8F7D      		andi r24,lo8(-33)
 2075 0626 85BF      		out 85-0x20,r24
 2076 0628 00C0      		rjmp .L129
 2077               	/* epilogue: frame size=0 */
 2078               	/* epilogue: noreturn */
 2079               	/* epilogue end (size=0) */
 2080               	/* function lighted_fireflies size 348 (348) */
 2081               	.LFE14:
 2083               	.global	main
 2085               	main:
 2086               	.LFB15:
 2087               	.LM172:
 2088               	/* prologue: frame size=0 */
 2089 062a C0E0      		ldi r28,lo8(__stack - 0)
 2090 062c D0E0      		ldi r29,hi8(__stack - 0)
 2091 062e DEBF      		out __SP_H__,r29
 2092 0630 CDBF      		out __SP_L__,r28
 2093               	/* prologue end (size=4) */
 2094               	.LBB8:
 2095               	.LBB9:
 2096               	.LM173:
 2097 0632 88E1      		ldi r24,lo8(24)
 2098 0634 90E0      		ldi r25,hi8(24)
 2099 0636 2DE0      		ldi r18,lo8(13)
 2100               	/* #APP */
 2101 0638 0FB6      		in __tmp_reg__,__SREG__
 2102 063a F894      		cli
 2103 063c A895      		wdr
 2104 063e 81BD      		out 33,r24
 2105 0640 0FBE      		out __SREG__,__tmp_reg__
 2106 0642 21BD      		out 33,r18
 2107               	.LM174:
 2108               	/* #NOAPP */
 2109 0644 81B5      		in r24,65-0x20
 2110 0646 8064      		ori r24,lo8(64)
 2111 0648 81BD      		out 65-0x20,r24
GAS LISTING /var/folders/co/coknbUWaExmsbK3adiW3-++++TI/-Tmp-//ccMZ4o1l.s 			page 37


 2112               	.LM175:
 2113 064a 8FEF      		ldi r24,lo8(-1)
 2114 064c 87BB      		out 55-0x20,r24
 2115               	.LM176:
 2116 064e 8DEE      		ldi r24,lo8(-19)
 2117 0650 88BB      		out 56-0x20,r24
 2118               	.LM177:
 2119 0652 80B5      		in r24,64-0x20
 2120 0654 8860      		ori r24,lo8(8)
 2121 0656 80BD      		out 64-0x20,r24
 2122               	.LM178:
 2123 0658 80B5      		in r24,64-0x20
 2124 065a 8260      		ori r24,lo8(2)
 2125 065c 80BD      		out 64-0x20,r24
 2126               	.LM179:
 2127 065e 80B5      		in r24,64-0x20
 2128 0660 8160      		ori r24,lo8(1)
 2129 0662 80BD      		out 64-0x20,r24
 2130               	.LM180:
 2131 0664 92E0      		ldi r25,lo8(2)
 2132 0666 9ABD      		out 74-0x20,r25
 2133               	.LM181:
 2134 0668 93BF      		out 83-0x20,r25
 2135               	.LM182:
 2136 066a 89E1      		ldi r24,lo8(25)
 2137 066c 89BD      		out 73-0x20,r24
 2138               	.LBB10:
 2139               	.LM183:
 2140 066e 80E8      		ldi r24,lo8(-128)
 2141               	/* #APP */
 2142 0670 0FB6      		in __tmp_reg__,__SREG__
 2143 0672 F894      		cli
 2144 0674 86BD      		out 38, r24
 2145 0676 96BD      		out 38, r25
 2146 0678 0FBE      		out __SREG__, __tmp_reg__
 2147               	/* #NOAPP */
 2148               	.LBE10:
 2149               	.LM184:
 2150 067a 80E1      		ldi r24,lo8(16)
 2151 067c 89BF      		out 89-0x20,r24
 2152               	.LM185:
 2153 067e 81B5      		in r24,65-0x20
 2154 0680 8064      		ori r24,lo8(64)
 2155 0682 81BD      		out 65-0x20,r24
 2156               	.LBE9:
 2157               	.LBE8:
 2158               	.LM186:
 2159 0684 8824      		clr r8
 2160 0686 782C      		mov r7,r8
 2161 0688 682C      		mov r6,r8
 2162 068a 582C      		mov r5,r8
 2163 068c 482C      		mov r4,r8
 2164 068e 382C      		mov r3,r8
 2165 0690 282C      		mov r2,r8
 2166               	.LM187:
 2167 0692 00D0      		rcall randwaitval
 2168 0694 8093 0000 		sts ch1restcount,r24
GAS LISTING /var/folders/co/coknbUWaExmsbK3adiW3-++++TI/-Tmp-//ccMZ4o1l.s 			page 38


 2169               	.LM188:
 2170 0698 00D0      		rcall randwaitval
 2171 069a 8093 0000 		sts ch2restcount,r24
 2172               	.LM189:
 2173 069e 11BA      		out 49-0x20,__zero_reg__
 2174               	.LM190:
 2175               	/* #APP */
 2176 06a0 7894      		sei
 2177               	.LM191:
 2178               	/* #NOAPP */
 2179 06a2 00D0      		rcall showbootup
 2180               	.L132:
 2181               	.LM192:
 2182 06a4 8824      		clr r8
 2183 06a6 782C      		mov r7,r8
 2184 06a8 682C      		mov r6,r8
 2185 06aa 582C      		mov r5,r8
 2186 06ac 482C      		mov r4,r8
 2187 06ae 382C      		mov r3,r8
 2188 06b0 282C      		mov r2,r8
 2189               	.LM193:
 2190 06b2 81BA      		out 49-0x20,r8
 2191               	.LM194:
 2192 06b4 899A      		sbi 49-0x20,1
 2193               	.LM195:
 2194 06b6 8B9A      		sbi 49-0x20,3
 2195               	.LM196:
 2196 06b8 00D0      		rcall lighted_fireflies
 2197               	.LM197:
 2198 06ba 00C0      		rjmp .L132
 2199               	/* epilogue: frame size=0 */
 2200               	/* epilogue: noreturn */
 2201               	/* epilogue end (size=0) */
 2202               	/* function main size 85 (81) */
 2203               	.LFE15:
 2205               		.comm ch1restcount,1,1
 2206               		.comm ch2restcount,1,1
 2207               		.comm ch1nextnote,1,1
 2208               		.comm ch2nextnote,1,1
 2209               		.comm ch1scale,1,1
 2210               		.comm ch2scale,1,1
 2211               		.comm ch1nextscale,1,1
 2212               		.comm ch2nextscale,1,1
 2213               		.comm masterpinmask,1,1
 2214               	.Letext0:
GAS LISTING /var/folders/co/coknbUWaExmsbK3adiW3-++++TI/-Tmp-//ccMZ4o1l.s 			page 39


DEFINED SYMBOLS
                            *ABS*:00000000 firefly.c
/var/folders/co/coknbUWaExmsbK3adiW3-++++TI/-Tmp-//ccMZ4o1l.s:3      *ABS*:0000003f __SREG__
/var/folders/co/coknbUWaExmsbK3adiW3-++++TI/-Tmp-//ccMZ4o1l.s:4      *ABS*:0000003e __SP_H__
/var/folders/co/coknbUWaExmsbK3adiW3-++++TI/-Tmp-//ccMZ4o1l.s:5      *ABS*:0000003d __SP_L__
/var/folders/co/coknbUWaExmsbK3adiW3-++++TI/-Tmp-//ccMZ4o1l.s:6      *ABS*:00000000 __tmp_reg__
/var/folders/co/coknbUWaExmsbK3adiW3-++++TI/-Tmp-//ccMZ4o1l.s:7      *ABS*:00000001 __zero_reg__
/var/folders/co/coknbUWaExmsbK3adiW3-++++TI/-Tmp-//ccMZ4o1l.s:22     .data:00000000 mood_count
/var/folders/co/coknbUWaExmsbK3adiW3-++++TI/-Tmp-//ccMZ4o1l.s:27     .data:00000002 mood
/var/folders/co/coknbUWaExmsbK3adiW3-++++TI/-Tmp-//ccMZ4o1l.s:33     .progmem.data:00000000 version
/var/folders/co/coknbUWaExmsbK3adiW3-++++TI/-Tmp-//ccMZ4o1l.s:38     .progmem.data:0000002f about
/var/folders/co/coknbUWaExmsbK3adiW3-++++TI/-Tmp-//ccMZ4o1l.s:46     .progmem.data:000000ec bitmasks
/var/folders/co/coknbUWaExmsbK3adiW3-++++TI/-Tmp-//ccMZ4o1l.s:60     .data:00000003 songs
/var/folders/co/coknbUWaExmsbK3adiW3-++++TI/-Tmp-//ccMZ4o1l.s:791    .data:0000003d song2a
/var/folders/co/coknbUWaExmsbK3adiW3-++++TI/-Tmp-//ccMZ4o1l.s:671    .data:00000039 song2b
/var/folders/co/coknbUWaExmsbK3adiW3-++++TI/-Tmp-//ccMZ4o1l.s:529    .data:00000035 song2c
/var/folders/co/coknbUWaExmsbK3adiW3-++++TI/-Tmp-//ccMZ4o1l.s:418    .data:00000031 song2d
/var/folders/co/coknbUWaExmsbK3adiW3-++++TI/-Tmp-//ccMZ4o1l.s:270    .data:0000002d song2e
/var/folders/co/coknbUWaExmsbK3adiW3-++++TI/-Tmp-//ccMZ4o1l.s:165    .data:00000029 song2f
/var/folders/co/coknbUWaExmsbK3adiW3-++++TI/-Tmp-//ccMZ4o1l.s:85     .data:00000025 song2g
/var/folders/co/coknbUWaExmsbK3adiW3-++++TI/-Tmp-//ccMZ4o1l.s:80     .data:00000023 bootsongs
/var/folders/co/coknbUWaExmsbK3adiW3-++++TI/-Tmp-//ccMZ4o1l.s:922    .data:00000041 bootsong
/var/folders/co/coknbUWaExmsbK3adiW3-++++TI/-Tmp-//ccMZ4o1l.s:92     .progmem.data:000000f5 song2gnotes
/var/folders/co/coknbUWaExmsbK3adiW3-++++TI/-Tmp-//ccMZ4o1l.s:172    .progmem.data:00000139 song2fnotes
/var/folders/co/coknbUWaExmsbK3adiW3-++++TI/-Tmp-//ccMZ4o1l.s:277    .progmem.data:00000196 song2enotes
/var/folders/co/coknbUWaExmsbK3adiW3-++++TI/-Tmp-//ccMZ4o1l.s:425    .progmem.data:0000021e song2dnotes
/var/folders/co/coknbUWaExmsbK3adiW3-++++TI/-Tmp-//ccMZ4o1l.s:536    .progmem.data:00000281 song2cnotes
/var/folders/co/coknbUWaExmsbK3adiW3-++++TI/-Tmp-//ccMZ4o1l.s:678    .progmem.data:00000303 song2bnotes
/var/folders/co/coknbUWaExmsbK3adiW3-++++TI/-Tmp-//ccMZ4o1l.s:798    .progmem.data:0000036f song2anotes
/var/folders/co/coknbUWaExmsbK3adiW3-++++TI/-Tmp-//ccMZ4o1l.s:929    .progmem.data:000003e6 bootsongnotes
/var/folders/co/coknbUWaExmsbK3adiW3-++++TI/-Tmp-//ccMZ4o1l.s:952    .text:00000000 __vector_12
                            *COM*:00000001 ch1restcount
                            *COM*:00000001 ch2restcount
                             .bss:00000000 x.7
/var/folders/co/coknbUWaExmsbK3adiW3-++++TI/-Tmp-//ccMZ4o1l.s:1014   .text:00000068 __vector_10
                            *COM*:00000001 ch1nextnote
                            *COM*:00000001 ch2nextnote
                            *COM*:00000001 masterpinmask
/var/folders/co/coknbUWaExmsbK3adiW3-++++TI/-Tmp-//ccMZ4o1l.s:1146   .text:00000120 von_181
/var/folders/co/coknbUWaExmsbK3adiW3-++++TI/-Tmp-//ccMZ4o1l.s:1148   .text:00000122 turnon_181
/var/folders/co/coknbUWaExmsbK3adiW3-++++TI/-Tmp-//ccMZ4o1l.s:1152   .text:00000128 turnoff_181
/var/folders/co/coknbUWaExmsbK3adiW3-++++TI/-Tmp-//ccMZ4o1l.s:1154   .text:0000012a done_181
/var/folders/co/coknbUWaExmsbK3adiW3-++++TI/-Tmp-//ccMZ4o1l.s:1168   .text:0000013a von_187
/var/folders/co/coknbUWaExmsbK3adiW3-++++TI/-Tmp-//ccMZ4o1l.s:1170   .text:0000013c turnon_187
/var/folders/co/coknbUWaExmsbK3adiW3-++++TI/-Tmp-//ccMZ4o1l.s:1174   .text:00000142 turnoff_187
/var/folders/co/coknbUWaExmsbK3adiW3-++++TI/-Tmp-//ccMZ4o1l.s:1176   .text:00000144 done_187
/var/folders/co/coknbUWaExmsbK3adiW3-++++TI/-Tmp-//ccMZ4o1l.s:1200   .text:00000152 showbootup
/var/folders/co/coknbUWaExmsbK3adiW3-++++TI/-Tmp-//ccMZ4o1l.s:1408   .data:00000048 lfsr.5
/var/folders/co/coknbUWaExmsbK3adiW3-++++TI/-Tmp-//ccMZ4o1l.s:1413   .text:00000274 randbits
/var/folders/co/coknbUWaExmsbK3adiW3-++++TI/-Tmp-//ccMZ4o1l.s:1470   .text:000002bc randwaitval
/var/folders/co/coknbUWaExmsbK3adiW3-++++TI/-Tmp-//ccMZ4o1l.s:1508   .text:000002ee randscaleval
/var/folders/co/coknbUWaExmsbK3adiW3-++++TI/-Tmp-//ccMZ4o1l.s:1543   .text:00000318 pickapin
/var/folders/co/coknbUWaExmsbK3adiW3-++++TI/-Tmp-//ccMZ4o1l.s:1011   .bss:00000001 ticker.6
/var/folders/co/coknbUWaExmsbK3adiW3-++++TI/-Tmp-//ccMZ4o1l.s:1611   .text:00000368 pickmaster
/var/folders/co/coknbUWaExmsbK3adiW3-++++TI/-Tmp-//ccMZ4o1l.s:1652   .text:00000396 pickasong
/var/folders/co/coknbUWaExmsbK3adiW3-++++TI/-Tmp-//ccMZ4o1l.s:1608   .bss:00000002 ch1song.0
/var/folders/co/coknbUWaExmsbK3adiW3-++++TI/-Tmp-//ccMZ4o1l.s:1680   .bss:00000004 ch2song.1
GAS LISTING /var/folders/co/coknbUWaExmsbK3adiW3-++++TI/-Tmp-//ccMZ4o1l.s 			page 40


/var/folders/co/coknbUWaExmsbK3adiW3-++++TI/-Tmp-//ccMZ4o1l.s:1681   .bss:00000006 ch1noteptr.2
/var/folders/co/coknbUWaExmsbK3adiW3-++++TI/-Tmp-//ccMZ4o1l.s:1682   .bss:00000008 ch2noteptr.3
/var/folders/co/coknbUWaExmsbK3adiW3-++++TI/-Tmp-//ccMZ4o1l.s:1683   .bss:0000000a temp.4
/var/folders/co/coknbUWaExmsbK3adiW3-++++TI/-Tmp-//ccMZ4o1l.s:1687   .text:000003b6 lighted_fireflies
                            *COM*:00000001 ch1scale
                            *COM*:00000001 ch2scale
/var/folders/co/coknbUWaExmsbK3adiW3-++++TI/-Tmp-//ccMZ4o1l.s:2085   .text:0000062a main
                            *COM*:00000001 ch1nextscale
                            *COM*:00000001 ch2nextscale

UNDEFINED SYMBOLS
__do_copy_data
__do_clear_bss
__mulhi3
__stack
