GAS LISTING /var/folders/co/coknbUWaExmsbK3adiW3-++++TI/-Tmp-//cck6ifVE.s 			page 1


   1               		.file	"firefly.c"
   2               		.arch attiny45
   3               	__SREG__ = 0x3f
   4               	__SP_H__ = 0x3e
   5               	__SP_L__ = 0x3d
   6               	__tmp_reg__ = 0
   7               	__zero_reg__ = 1
   8               		.global __do_copy_data
   9               		.global __do_clear_bss
  17               	.Ltext0:
  18               	.global	mood_count
  19               		.data
  22               	mood_count:
  23 0000 1E00      		.word	30
  24               	.global	mood
  27               	mood:
  28 0002 02        		.byte	2
  29               	.global	version
  30               		.section	.progmem.data,"a",@progbits
  33               	version:
  34 0000 2452 6576 		.string	"$Revision: 1.41 $ $Date: 2007/01/10 04:35:55 $"
  34      6973 696F 
  34      6E3A 2031 
  34      2E34 3120 
  34      2420 2444 
  35               	.global	about
  38               	about:
  39 002f 4A61 7220 		.ascii	"Jar of Fireflies\nDesign and Implementation by Xander Hudson"
  39      6F66 2046 
  39      6972 6566 
  39      6C69 6573 
  39      0A44 6573 
  40 006a 2028 6A61 		.ascii	" (jar@synoptic.org)\nIdea and Inspiration by Kayobi Tierney\n"
  40      7240 7379 
  40      6E6F 7074 
  40      6963 2E6F 
  40      7267 290A 
  41 00a5 5370 6563 		.ascii	"Specia"
  41      6961 
  42 00ab 6C20 7468 		.string	"l thanks to Katie Horn for getting me to think about electronics"
  42      616E 6B73 
  42      2074 6F20 
  42      4B61 7469 
  42      6520 486F 
  43               	.global	bitmasks
  46               	bitmasks:
  47 00ec 00        		.byte	0
  48 00ed 01        		.byte	1
  49 00ee 03        		.byte	3
  50 00ef 07        		.byte	7
  51 00f0 0F        		.byte	15
  52 00f1 1F        		.byte	31
  53 00f2 3F        		.byte	63
  54 00f3 7F        		.byte	127
  55 00f4 FF        		.byte	-1
  56               	.global	songs
  57               		.data
GAS LISTING /var/folders/co/coknbUWaExmsbK3adiW3-++++TI/-Tmp-//cck6ifVE.s 			page 2


  60               	songs:
  61 0003 0000      		.word	song2a
  62 0005 0000      		.word	song2b
  63 0007 0000      		.word	song2b
  64 0009 0000      		.word	song2c
  65 000b 0000      		.word	song2c
  66 000d 0000      		.word	song2c
  67 000f 0000      		.word	song2d
  68 0011 0000      		.word	song2d
  69 0013 0000      		.word	song2e
  70 0015 0000      		.word	song2e
  71 0017 0000      		.word	song2e
  72 0019 0000      		.word	song2f
  73 001b 0000      		.word	song2f
  74 001d 0000      		.word	song2g
  75 001f 0000      		.word	song2g
  76 0021 0000      		.word	song2g
  77               	.global	bootsongs
  80               	bootsongs:
  81 0023 0000      		.word	bootsong
  82               	.global	song2g
  85               	song2g:
  86 0025 4400      		.word	68
  87 0027 0000      		.word	song2gnotes
  88               	.global	song2gnotes
  89               		.section	.progmem.data
  92               	song2gnotes:
  93 00f5 02        		.byte	2
  94 00f6 2A        		.byte	42
  95 00f7 63        		.byte	99
  96 00f8 79        		.byte	121
  97 00f9 60        		.byte	96
  98 00fa 2A        		.byte	42
  99 00fb 03        		.byte	3
 100 00fc 01        		.byte	1
 101 00fd 01        		.byte	1
 102 00fe 01        		.byte	1
 103 00ff 01        		.byte	1
 104 0100 01        		.byte	1
 105 0101 0C        		.byte	12
 106 0102 19        		.byte	25
 107 0103 29        		.byte	41
 108 0104 3C        		.byte	60
 109 0105 4D        		.byte	77
 110 0106 56        		.byte	86
 111 0107 5B        		.byte	91
 112 0108 64        		.byte	100
 113 0109 76        		.byte	118
 114 010a 88        		.byte	-120
 115 010b 90        		.byte	-112
 116 010c 8F        		.byte	-113
 117 010d 8D        		.byte	-115
 118 010e 92        		.byte	-110
 119 010f 99        		.byte	-103
 120 0110 9B        		.byte	-101
 121 0111 99        		.byte	-103
 122 0112 98        		.byte	-104
GAS LISTING /var/folders/co/coknbUWaExmsbK3adiW3-++++TI/-Tmp-//cck6ifVE.s 			page 3


 123 0113 9B        		.byte	-101
 124 0114 9A        		.byte	-102
 125 0115 94        		.byte	-108
 126 0116 8D        		.byte	-115
 127 0117 8E        		.byte	-114
 128 0118 98        		.byte	-104
 129 0119 9F        		.byte	-97
 130 011a 9A        		.byte	-102
 131 011b 8E        		.byte	-114
 132 011c 88        		.byte	-120
 133 011d 8D        		.byte	-115
 134 011e 98        		.byte	-104
 135 011f 99        		.byte	-103
 136 0120 8F        		.byte	-113
 137 0121 84        		.byte	-124
 138 0122 7E        		.byte	126
 139 0123 7C        		.byte	124
 140 0124 78        		.byte	120
 141 0125 6F        		.byte	111
 142 0126 65        		.byte	101
 143 0127 5C        		.byte	92
 144 0128 53        		.byte	83
 145 0129 48        		.byte	72
 146 012a 3B        		.byte	59
 147 012b 31        		.byte	49
 148 012c 2B        		.byte	43
 149 012d 26        		.byte	38
 150 012e 1E        		.byte	30
 151 012f 15        		.byte	21
 152 0130 0F        		.byte	15
 153 0131 0B        		.byte	11
 154 0132 08        		.byte	8
 155 0133 05        		.byte	5
 156 0134 03        		.byte	3
 157 0135 01        		.byte	1
 158 0136 01        		.byte	1
 159 0137 00        		.byte	0
 160 0138 00        		.byte	0
 161               	.global	song2f
 162               		.data
 165               	song2f:
 166 0029 5D00      		.word	93
 167 002b 0000      		.word	song2fnotes
 168               	.global	song2fnotes
 169               		.section	.progmem.data
 172               	song2fnotes:
 173 0139 02        		.byte	2
 174 013a 24        		.byte	36
 175 013b 5E        		.byte	94
 176 013c 82        		.byte	-126
 177 013d 79        		.byte	121
 178 013e 4F        		.byte	79
 179 013f 1B        		.byte	27
 180 0140 01        		.byte	1
 181 0141 01        		.byte	1
 182 0142 01        		.byte	1
 183 0143 01        		.byte	1
GAS LISTING /var/folders/co/coknbUWaExmsbK3adiW3-++++TI/-Tmp-//cck6ifVE.s 			page 4


 184 0144 01        		.byte	1
 185 0145 01        		.byte	1
 186 0146 05        		.byte	5
 187 0147 10        		.byte	16
 188 0148 1E        		.byte	30
 189 0149 2D        		.byte	45
 190 014a 3B        		.byte	59
 191 014b 47        		.byte	71
 192 014c 52        		.byte	82
 193 014d 5E        		.byte	94
 194 014e 6B        		.byte	107
 195 014f 77        		.byte	119
 196 0150 82        		.byte	-126
 197 0151 89        		.byte	-119
 198 0152 8E        		.byte	-114
 199 0153 93        		.byte	-109
 200 0154 97        		.byte	-105
 201 0155 9A        		.byte	-102
 202 0156 99        		.byte	-103
 203 0157 95        		.byte	-107
 204 0158 90        		.byte	-112
 205 0159 8D        		.byte	-115
 206 015a 8D        		.byte	-115
 207 015b 8F        		.byte	-113
 208 015c 8F        		.byte	-113
 209 015d 8C        		.byte	-116
 210 015e 86        		.byte	-122
 211 015f 83        		.byte	-125
 212 0160 87        		.byte	-121
 213 0161 91        		.byte	-111
 214 0162 A0        		.byte	-96
 215 0163 AB        		.byte	-85
 216 0164 AC        		.byte	-84
 217 0165 A3        		.byte	-93
 218 0166 96        		.byte	-106
 219 0167 8D        		.byte	-115
 220 0168 8C        		.byte	-116
 221 0169 91        		.byte	-111
 222 016a 97        		.byte	-105
 223 016b 98        		.byte	-104
 224 016c 93        		.byte	-109
 225 016d 8A        		.byte	-118
 226 016e 86        		.byte	-122
 227 016f 88        		.byte	-120
 228 0170 93        		.byte	-109
 229 0171 9F        		.byte	-97
 230 0172 A5        		.byte	-91
 231 0173 A2        		.byte	-94
 232 0174 98        		.byte	-104
 233 0175 8C        		.byte	-116
 234 0176 84        		.byte	-124
 235 0177 81        		.byte	-127
 236 0178 83        		.byte	-125
 237 0179 84        		.byte	-124
 238 017a 83        		.byte	-125
 239 017b 7F        		.byte	127
 240 017c 7B        		.byte	123
GAS LISTING /var/folders/co/coknbUWaExmsbK3adiW3-++++TI/-Tmp-//cck6ifVE.s 			page 5


 241 017d 77        		.byte	119
 242 017e 74        		.byte	116
 243 017f 70        		.byte	112
 244 0180 69        		.byte	105
 245 0181 60        		.byte	96
 246 0182 56        		.byte	86
 247 0183 4D        		.byte	77
 248 0184 45        		.byte	69
 249 0185 3E        		.byte	62
 250 0186 36        		.byte	54
 251 0187 2D        		.byte	45
 252 0188 26        		.byte	38
 253 0189 1F        		.byte	31
 254 018a 1B        		.byte	27
 255 018b 17        		.byte	23
 256 018c 13        		.byte	19
 257 018d 0E        		.byte	14
 258 018e 0A        		.byte	10
 259 018f 06        		.byte	6
 260 0190 04        		.byte	4
 261 0191 02        		.byte	2
 262 0192 01        		.byte	1
 263 0193 01        		.byte	1
 264 0194 00        		.byte	0
 265 0195 00        		.byte	0
 266               	.global	song2e
 267               		.data
 270               	song2e:
 271 002d 8800      		.word	136
 272 002f 0000      		.word	song2enotes
 273               	.global	song2enotes
 274               		.section	.progmem.data
 277               	song2enotes:
 278 0196 01        		.byte	1
 279 0197 1A        		.byte	26
 280 0198 49        		.byte	73
 281 0199 74        		.byte	116
 282 019a 83        		.byte	-125
 283 019b 73        		.byte	115
 284 019c 50        		.byte	80
 285 019d 27        		.byte	39
 286 019e 08        		.byte	8
 287 019f 01        		.byte	1
 288 01a0 01        		.byte	1
 289 01a1 01        		.byte	1
 290 01a2 01        		.byte	1
 291 01a3 01        		.byte	1
 292 01a4 01        		.byte	1
 293 01a5 01        		.byte	1
 294 01a6 06        		.byte	6
 295 01a7 0F        		.byte	15
 296 01a8 1A        		.byte	26
 297 01a9 24        		.byte	36
 298 01aa 2F        		.byte	47
 299 01ab 3A        		.byte	58
 300 01ac 46        		.byte	70
 301 01ad 52        		.byte	82
GAS LISTING /var/folders/co/coknbUWaExmsbK3adiW3-++++TI/-Tmp-//cck6ifVE.s 			page 6


 302 01ae 5B        		.byte	91
 303 01af 62        		.byte	98
 304 01b0 66        		.byte	102
 305 01b1 6A        		.byte	106
 306 01b2 6F        		.byte	111
 307 01b3 77        		.byte	119
 308 01b4 83        		.byte	-125
 309 01b5 90        		.byte	-112
 310 01b6 9A        		.byte	-102
 311 01b7 9D        		.byte	-99
 312 01b8 99        		.byte	-103
 313 01b9 90        		.byte	-112
 314 01ba 89        		.byte	-119
 315 01bb 86        		.byte	-122
 316 01bc 89        		.byte	-119
 317 01bd 92        		.byte	-110
 318 01be 9A        		.byte	-102
 319 01bf 9E        		.byte	-98
 320 01c0 9C        		.byte	-100
 321 01c1 95        		.byte	-107
 322 01c2 8D        		.byte	-115
 323 01c3 89        		.byte	-119
 324 01c4 8A        		.byte	-118
 325 01c5 8F        		.byte	-113
 326 01c6 97        		.byte	-105
 327 01c7 9D        		.byte	-99
 328 01c8 9E        		.byte	-98
 329 01c9 9B        		.byte	-101
 330 01ca 97        		.byte	-105
 331 01cb 94        		.byte	-108
 332 01cc 96        		.byte	-106
 333 01cd 9A        		.byte	-102
 334 01ce 9E        		.byte	-98
 335 01cf A0        		.byte	-96
 336 01d0 9E        		.byte	-98
 337 01d1 99        		.byte	-103
 338 01d2 94        		.byte	-108
 339 01d3 90        		.byte	-112
 340 01d4 91        		.byte	-111
 341 01d5 93        		.byte	-109
 342 01d6 96        		.byte	-106
 343 01d7 96        		.byte	-106
 344 01d8 92        		.byte	-110
 345 01d9 8C        		.byte	-116
 346 01da 85        		.byte	-123
 347 01db 82        		.byte	-126
 348 01dc 83        		.byte	-125
 349 01dd 87        		.byte	-121
 350 01de 8C        		.byte	-116
 351 01df 8F        		.byte	-113
 352 01e0 90        		.byte	-112
 353 01e1 8E        		.byte	-114
 354 01e2 8D        		.byte	-115
 355 01e3 8D        		.byte	-115
 356 01e4 90        		.byte	-112
 357 01e5 95        		.byte	-107
 358 01e6 99        		.byte	-103
GAS LISTING /var/folders/co/coknbUWaExmsbK3adiW3-++++TI/-Tmp-//cck6ifVE.s 			page 7


 359 01e7 9C        		.byte	-100
 360 01e8 9D        		.byte	-99
 361 01e9 9D        		.byte	-99
 362 01ea 9D        		.byte	-99
 363 01eb A0        		.byte	-96
 364 01ec A4        		.byte	-92
 365 01ed A7        		.byte	-89
 366 01ee A7        		.byte	-89
 367 01ef A1        		.byte	-95
 368 01f0 99        		.byte	-103
 369 01f1 91        		.byte	-111
 370 01f2 8E        		.byte	-114
 371 01f3 8F        		.byte	-113
 372 01f4 95        		.byte	-107
 373 01f5 9A        		.byte	-102
 374 01f6 9B        		.byte	-101
 375 01f7 95        		.byte	-107
 376 01f8 89        		.byte	-119
 377 01f9 7C        		.byte	124
 378 01fa 73        		.byte	115
 379 01fb 70        		.byte	112
 380 01fc 74        		.byte	116
 381 01fd 7B        		.byte	123
 382 01fe 80        		.byte	-128
 383 01ff 80        		.byte	-128
 384 0200 79        		.byte	121
 385 0201 6E        		.byte	110
 386 0202 63        		.byte	99
 387 0203 5B        		.byte	91
 388 0204 58        		.byte	88
 389 0205 58        		.byte	88
 390 0206 59        		.byte	89
 391 0207 57        		.byte	87
 392 0208 53        		.byte	83
 393 0209 4B        		.byte	75
 394 020a 42        		.byte	66
 395 020b 39        		.byte	57
 396 020c 32        		.byte	50
 397 020d 2C        		.byte	44
 398 020e 26        		.byte	38
 399 020f 22        		.byte	34
 400 0210 1D        		.byte	29
 401 0211 19        		.byte	25
 402 0212 14        		.byte	20
 403 0213 11        		.byte	17
 404 0214 0D        		.byte	13
 405 0215 09        		.byte	9
 406 0216 07        		.byte	7
 407 0217 04        		.byte	4
 408 0218 03        		.byte	3
 409 0219 01        		.byte	1
 410 021a 01        		.byte	1
 411 021b 00        		.byte	0
 412 021c 01        		.byte	1
 413 021d 00        		.byte	0
 414               	.global	song2d
 415               		.data
GAS LISTING /var/folders/co/coknbUWaExmsbK3adiW3-++++TI/-Tmp-//cck6ifVE.s 			page 8


 418               	song2d:
 419 0031 6300      		.word	99
 420 0033 0000      		.word	song2dnotes
 421               	.global	song2dnotes
 422               		.section	.progmem.data
 425               	song2dnotes:
 426 021e 01        		.byte	1
 427 021f 1B        		.byte	27
 428 0220 48        		.byte	72
 429 0221 6D        		.byte	109
 430 0222 79        		.byte	121
 431 0223 68        		.byte	104
 432 0224 3D        		.byte	61
 433 0225 11        		.byte	17
 434 0226 01        		.byte	1
 435 0227 01        		.byte	1
 436 0228 01        		.byte	1
 437 0229 01        		.byte	1
 438 022a 01        		.byte	1
 439 022b 01        		.byte	1
 440 022c 01        		.byte	1
 441 022d 0B        		.byte	11
 442 022e 15        		.byte	21
 443 022f 22        		.byte	34
 444 0230 30        		.byte	48
 445 0231 3C        		.byte	60
 446 0232 46        		.byte	70
 447 0233 4D        		.byte	77
 448 0234 56        		.byte	86
 449 0235 63        		.byte	99
 450 0236 73        		.byte	115
 451 0237 80        		.byte	-128
 452 0238 87        		.byte	-121
 453 0239 87        		.byte	-121
 454 023a 86        		.byte	-122
 455 023b 88        		.byte	-120
 456 023c 8D        		.byte	-115
 457 023d 90        		.byte	-112
 458 023e 8F        		.byte	-113
 459 023f 8B        		.byte	-117
 460 0240 8A        		.byte	-118
 461 0241 8D        		.byte	-115
 462 0242 93        		.byte	-109
 463 0243 94        		.byte	-108
 464 0244 8E        		.byte	-114
 465 0245 83        		.byte	-125
 466 0246 7B        		.byte	123
 467 0247 7E        		.byte	126
 468 0248 8A        		.byte	-118
 469 0249 99        		.byte	-103
 470 024a A4        		.byte	-92
 471 024b A6        		.byte	-90
 472 024c A1        		.byte	-95
 473 024d 9C        		.byte	-100
 474 024e 9A        		.byte	-102
 475 024f 9A        		.byte	-102
 476 0250 99        		.byte	-103
GAS LISTING /var/folders/co/coknbUWaExmsbK3adiW3-++++TI/-Tmp-//cck6ifVE.s 			page 9


 477 0251 97        		.byte	-105
 478 0252 96        		.byte	-106
 479 0253 9B        		.byte	-101
 480 0254 A3        		.byte	-93
 481 0255 A9        		.byte	-87
 482 0256 A6        		.byte	-90
 483 0257 98        		.byte	-104
 484 0258 88        		.byte	-120
 485 0259 7E        		.byte	126
 486 025a 80        		.byte	-128
 487 025b 8B        		.byte	-117
 488 025c 97        		.byte	-105
 489 025d 9C        		.byte	-100
 490 025e 99        		.byte	-103
 491 025f 92        		.byte	-110
 492 0260 8C        		.byte	-116
 493 0261 88        		.byte	-120
 494 0262 83        		.byte	-125
 495 0263 7B        		.byte	123
 496 0264 73        		.byte	115
 497 0265 6E        		.byte	110
 498 0266 6E        		.byte	110
 499 0267 70        		.byte	112
 500 0268 6E        		.byte	110
 501 0269 64        		.byte	100
 502 026a 56        		.byte	86
 503 026b 49        		.byte	73
 504 026c 41        		.byte	65
 505 026d 3E        		.byte	62
 506 026e 3C        		.byte	60
 507 026f 3A        		.byte	58
 508 0270 34        		.byte	52
 509 0271 2E        		.byte	46
 510 0272 28        		.byte	40
 511 0273 23        		.byte	35
 512 0274 1F        		.byte	31
 513 0275 19        		.byte	25
 514 0276 14        		.byte	20
 515 0277 0F        		.byte	15
 516 0278 0B        		.byte	11
 517 0279 08        		.byte	8
 518 027a 06        		.byte	6
 519 027b 04        		.byte	4
 520 027c 02        		.byte	2
 521 027d 01        		.byte	1
 522 027e 01        		.byte	1
 523 027f 00        		.byte	0
 524 0280 00        		.byte	0
 525               	.global	song2c
 526               		.data
 529               	song2c:
 530 0035 8200      		.word	130
 531 0037 0000      		.word	song2cnotes
 532               	.global	song2cnotes
 533               		.section	.progmem.data
 536               	song2cnotes:
 537 0281 02        		.byte	2
GAS LISTING /var/folders/co/coknbUWaExmsbK3adiW3-++++TI/-Tmp-//cck6ifVE.s 			page 10


 538 0282 19        		.byte	25
 539 0283 46        		.byte	70
 540 0284 75        		.byte	117
 541 0285 92        		.byte	-110
 542 0286 90        		.byte	-112
 543 0287 6F        		.byte	111
 544 0288 3D        		.byte	61
 545 0289 12        		.byte	18
 546 028a 01        		.byte	1
 547 028b 01        		.byte	1
 548 028c 01        		.byte	1
 549 028d 01        		.byte	1
 550 028e 01        		.byte	1
 551 028f 01        		.byte	1
 552 0290 01        		.byte	1
 553 0291 01        		.byte	1
 554 0292 08        		.byte	8
 555 0293 12        		.byte	18
 556 0294 1C        		.byte	28
 557 0295 27        		.byte	39
 558 0296 32        		.byte	50
 559 0297 3C        		.byte	60
 560 0298 45        		.byte	69
 561 0299 4E        		.byte	78
 562 029a 55        		.byte	85
 563 029b 5C        		.byte	92
 564 029c 63        		.byte	99
 565 029d 69        		.byte	105
 566 029e 6F        		.byte	111
 567 029f 76        		.byte	118
 568 02a0 7E        		.byte	126
 569 02a1 86        		.byte	-122
 570 02a2 8E        		.byte	-114
 571 02a3 95        		.byte	-107
 572 02a4 9B        		.byte	-101
 573 02a5 9F        		.byte	-97
 574 02a6 A1        		.byte	-95
 575 02a7 A0        		.byte	-96
 576 02a8 9C        		.byte	-100
 577 02a9 98        		.byte	-104
 578 02aa 92        		.byte	-110
 579 02ab 8B        		.byte	-117
 580 02ac 86        		.byte	-122
 581 02ad 81        		.byte	-127
 582 02ae 7E        		.byte	126
 583 02af 7D        		.byte	125
 584 02b0 7E        		.byte	126
 585 02b1 81        		.byte	-127
 586 02b2 86        		.byte	-122
 587 02b3 8C        		.byte	-116
 588 02b4 94        		.byte	-108
 589 02b5 9B        		.byte	-101
 590 02b6 A2        		.byte	-94
 591 02b7 A8        		.byte	-88
 592 02b8 AB        		.byte	-85
 593 02b9 AC        		.byte	-84
 594 02ba AB        		.byte	-85
GAS LISTING /var/folders/co/coknbUWaExmsbK3adiW3-++++TI/-Tmp-//cck6ifVE.s 			page 11


 595 02bb A8        		.byte	-88
 596 02bc A3        		.byte	-93
 597 02bd 9E        		.byte	-98
 598 02be 99        		.byte	-103
 599 02bf 95        		.byte	-107
 600 02c0 92        		.byte	-110
 601 02c1 90        		.byte	-112
 602 02c2 90        		.byte	-112
 603 02c3 92        		.byte	-110
 604 02c4 94        		.byte	-108
 605 02c5 97        		.byte	-105
 606 02c6 9A        		.byte	-102
 607 02c7 9D        		.byte	-99
 608 02c8 9E        		.byte	-98
 609 02c9 9E        		.byte	-98
 610 02ca 9D        		.byte	-99
 611 02cb 9A        		.byte	-102
 612 02cc 96        		.byte	-106
 613 02cd 91        		.byte	-111
 614 02ce 8D        		.byte	-115
 615 02cf 89        		.byte	-119
 616 02d0 86        		.byte	-122
 617 02d1 85        		.byte	-123
 618 02d2 84        		.byte	-124
 619 02d3 86        		.byte	-122
 620 02d4 88        		.byte	-120
 621 02d5 8B        		.byte	-117
 622 02d6 8F        		.byte	-113
 623 02d7 93        		.byte	-109
 624 02d8 95        		.byte	-107
 625 02d9 96        		.byte	-106
 626 02da 96        		.byte	-106
 627 02db 93        		.byte	-109
 628 02dc 8F        		.byte	-113
 629 02dd 8A        		.byte	-118
 630 02de 85        		.byte	-123
 631 02df 80        		.byte	-128
 632 02e0 7B        		.byte	123
 633 02e1 76        		.byte	118
 634 02e2 73        		.byte	115
 635 02e3 71        		.byte	113
 636 02e4 6F        		.byte	111
 637 02e5 6D        		.byte	109
 638 02e6 6C        		.byte	108
 639 02e7 69        		.byte	105
 640 02e8 66        		.byte	102
 641 02e9 62        		.byte	98
 642 02ea 5C        		.byte	92
 643 02eb 56        		.byte	86
 644 02ec 4E        		.byte	78
 645 02ed 46        		.byte	70
 646 02ee 3F        		.byte	63
 647 02ef 37        		.byte	55
 648 02f0 30        		.byte	48
 649 02f1 2A        		.byte	42
 650 02f2 25        		.byte	37
 651 02f3 21        		.byte	33
GAS LISTING /var/folders/co/coknbUWaExmsbK3adiW3-++++TI/-Tmp-//cck6ifVE.s 			page 12


 652 02f4 1D        		.byte	29
 653 02f5 19        		.byte	25
 654 02f6 16        		.byte	22
 655 02f7 13        		.byte	19
 656 02f8 10        		.byte	16
 657 02f9 0D        		.byte	13
 658 02fa 0A        		.byte	10
 659 02fb 07        		.byte	7
 660 02fc 05        		.byte	5
 661 02fd 03        		.byte	3
 662 02fe 02        		.byte	2
 663 02ff 01        		.byte	1
 664 0300 01        		.byte	1
 665 0301 00        		.byte	0
 666 0302 00        		.byte	0
 667               	.global	song2b
 668               		.data
 671               	song2b:
 672 0039 6C00      		.word	108
 673 003b 0000      		.word	song2bnotes
 674               	.global	song2bnotes
 675               		.section	.progmem.data
 678               	song2bnotes:
 679 0303 01        		.byte	1
 680 0304 1F        		.byte	31
 681 0305 59        		.byte	89
 682 0306 7E        		.byte	126
 683 0307 77        		.byte	119
 684 0308 55        		.byte	85
 685 0309 2A        		.byte	42
 686 030a 06        		.byte	6
 687 030b 01        		.byte	1
 688 030c 01        		.byte	1
 689 030d 01        		.byte	1
 690 030e 01        		.byte	1
 691 030f 01        		.byte	1
 692 0310 01        		.byte	1
 693 0311 08        		.byte	8
 694 0312 16        		.byte	22
 695 0313 25        		.byte	37
 696 0314 33        		.byte	51
 697 0315 40        		.byte	64
 698 0316 48        		.byte	72
 699 0317 50        		.byte	80
 700 0318 5C        		.byte	92
 701 0319 6C        		.byte	108
 702 031a 7A        		.byte	122
 703 031b 7F        		.byte	127
 704 031c 7A        		.byte	122
 705 031d 75        		.byte	117
 706 031e 7C        		.byte	124
 707 031f 8F        		.byte	-113
 708 0320 A3        		.byte	-93
 709 0321 A7        		.byte	-89
 710 0322 9B        		.byte	-101
 711 0323 8B        		.byte	-117
 712 0324 87        		.byte	-121
GAS LISTING /var/folders/co/coknbUWaExmsbK3adiW3-++++TI/-Tmp-//cck6ifVE.s 			page 13


 713 0325 8E        		.byte	-114
 714 0326 96        		.byte	-106
 715 0327 96        		.byte	-106
 716 0328 8D        		.byte	-115
 717 0329 83        		.byte	-125
 718 032a 81        		.byte	-127
 719 032b 85        		.byte	-123
 720 032c 8B        		.byte	-117
 721 032d 8F        		.byte	-113
 722 032e 92        		.byte	-110
 723 032f 95        		.byte	-107
 724 0330 98        		.byte	-104
 725 0331 96        		.byte	-106
 726 0332 90        		.byte	-112
 727 0333 8A        		.byte	-118
 728 0334 8A        		.byte	-118
 729 0335 91        		.byte	-111
 730 0336 96        		.byte	-106
 731 0337 93        		.byte	-109
 732 0338 89        		.byte	-119
 733 0339 84        		.byte	-124
 734 033a 89        		.byte	-119
 735 033b 99        		.byte	-103
 736 033c A6        		.byte	-90
 737 033d A7        		.byte	-89
 738 033e 9C        		.byte	-100
 739 033f 94        		.byte	-108
 740 0340 95        		.byte	-107
 741 0341 9C        		.byte	-100
 742 0342 A1        		.byte	-95
 743 0343 9C        		.byte	-100
 744 0344 93        		.byte	-109
 745 0345 8D        		.byte	-115
 746 0346 91        		.byte	-111
 747 0347 98        		.byte	-104
 748 0348 9D        		.byte	-99
 749 0349 9C        		.byte	-100
 750 034a 9A        		.byte	-102
 751 034b 9C        		.byte	-100
 752 034c A1        		.byte	-95
 753 034d A1        		.byte	-95
 754 034e 98        		.byte	-104
 755 034f 8C        		.byte	-116
 756 0350 85        		.byte	-123
 757 0351 83        		.byte	-125
 758 0352 82        		.byte	-126
 759 0353 7C        		.byte	124
 760 0354 72        		.byte	114
 761 0355 69        		.byte	105
 762 0356 66        		.byte	102
 763 0357 67        		.byte	103
 764 0358 65        		.byte	101
 765 0359 5D        		.byte	93
 766 035a 52        		.byte	82
 767 035b 4A        		.byte	74
 768 035c 44        		.byte	68
 769 035d 3F        		.byte	63
GAS LISTING /var/folders/co/coknbUWaExmsbK3adiW3-++++TI/-Tmp-//cck6ifVE.s 			page 14


 770 035e 37        		.byte	55
 771 035f 2E        		.byte	46
 772 0360 26        		.byte	38
 773 0361 20        		.byte	32
 774 0362 1D        		.byte	29
 775 0363 19        		.byte	25
 776 0364 14        		.byte	20
 777 0365 0F        		.byte	15
 778 0366 0B        		.byte	11
 779 0367 08        		.byte	8
 780 0368 06        		.byte	6
 781 0369 04        		.byte	4
 782 036a 02        		.byte	2
 783 036b 01        		.byte	1
 784 036c 01        		.byte	1
 785 036d 00        		.byte	0
 786 036e 00        		.byte	0
 787               	.global	song2a
 788               		.data
 791               	song2a:
 792 003d 7700      		.word	119
 793 003f 0000      		.word	song2anotes
 794               	.global	song2anotes
 795               		.section	.progmem.data
 798               	song2anotes:
 799 036f 02        		.byte	2
 800 0370 1D        		.byte	29
 801 0371 51        		.byte	81
 802 0372 7B        		.byte	123
 803 0373 82        		.byte	-126
 804 0374 68        		.byte	104
 805 0375 3F        		.byte	63
 806 0376 18        		.byte	24
 807 0377 02        		.byte	2
 808 0378 01        		.byte	1
 809 0379 01        		.byte	1
 810 037a 01        		.byte	1
 811 037b 01        		.byte	1
 812 037c 01        		.byte	1
 813 037d 01        		.byte	1
 814 037e 04        		.byte	4
 815 037f 0F        		.byte	15
 816 0380 1A        		.byte	26
 817 0381 24        		.byte	36
 818 0382 2E        		.byte	46
 819 0383 37        		.byte	55
 820 0384 42        		.byte	66
 821 0385 4F        		.byte	79
 822 0386 5B        		.byte	91
 823 0387 66        		.byte	102
 824 0388 6D        		.byte	109
 825 0389 73        		.byte	115
 826 038a 79        		.byte	121
 827 038b 83        		.byte	-125
 828 038c 8E        		.byte	-114
 829 038d 98        		.byte	-104
 830 038e 9B        		.byte	-101
GAS LISTING /var/folders/co/coknbUWaExmsbK3adiW3-++++TI/-Tmp-//cck6ifVE.s 			page 15


 831 038f 97        		.byte	-105
 832 0390 8D        		.byte	-115
 833 0391 85        		.byte	-123
 834 0392 83        		.byte	-125
 835 0393 87        		.byte	-121
 836 0394 90        		.byte	-112
 837 0395 99        		.byte	-103
 838 0396 9E        		.byte	-98
 839 0397 9E        		.byte	-98
 840 0398 9A        		.byte	-102
 841 0399 97        		.byte	-105
 842 039a 96        		.byte	-106
 843 039b 95        		.byte	-107
 844 039c 94        		.byte	-108
 845 039d 90        		.byte	-112
 846 039e 8B        		.byte	-117
 847 039f 88        		.byte	-120
 848 03a0 8A        		.byte	-118
 849 03a1 91        		.byte	-111
 850 03a2 9B        		.byte	-101
 851 03a3 A1        		.byte	-95
 852 03a4 A0        		.byte	-96
 853 03a5 99        		.byte	-103
 854 03a6 90        		.byte	-112
 855 03a7 8A        		.byte	-118
 856 03a8 8B        		.byte	-117
 857 03a9 91        		.byte	-111
 858 03aa 98        		.byte	-104
 859 03ab 9C        		.byte	-100
 860 03ac 9A        		.byte	-102
 861 03ad 94        		.byte	-108
 862 03ae 8D        		.byte	-115
 863 03af 8A        		.byte	-118
 864 03b0 8C        		.byte	-116
 865 03b1 91        		.byte	-111
 866 03b2 96        		.byte	-106
 867 03b3 99        		.byte	-103
 868 03b4 99        		.byte	-103
 869 03b5 98        		.byte	-104
 870 03b6 98        		.byte	-104
 871 03b7 9A        		.byte	-102
 872 03b8 9A        		.byte	-102
 873 03b9 96        		.byte	-106
 874 03ba 8E        		.byte	-114
 875 03bb 86        		.byte	-122
 876 03bc 81        		.byte	-127
 877 03bd 84        		.byte	-124
 878 03be 8E        		.byte	-114
 879 03bf 9C        		.byte	-100
 880 03c0 A8        		.byte	-88
 881 03c1 AA        		.byte	-86
 882 03c2 A1        		.byte	-95
 883 03c3 92        		.byte	-110
 884 03c4 83        		.byte	-125
 885 03c5 79        		.byte	121
 886 03c6 75        		.byte	117
 887 03c7 74        		.byte	116
GAS LISTING /var/folders/co/coknbUWaExmsbK3adiW3-++++TI/-Tmp-//cck6ifVE.s 			page 16


 888 03c8 74        		.byte	116
 889 03c9 73        		.byte	115
 890 03ca 71        		.byte	113
 891 03cb 6E        		.byte	110
 892 03cc 6D        		.byte	109
 893 03cd 6A        		.byte	106
 894 03ce 65        		.byte	101
 895 03cf 5C        		.byte	92
 896 03d0 50        		.byte	80
 897 03d1 43        		.byte	67
 898 03d2 3A        		.byte	58
 899 03d3 34        		.byte	52
 900 03d4 31        		.byte	49
 901 03d5 2E        		.byte	46
 902 03d6 2B        		.byte	43
 903 03d7 27        		.byte	39
 904 03d8 21        		.byte	33
 905 03d9 1B        		.byte	27
 906 03da 16        		.byte	22
 907 03db 12        		.byte	18
 908 03dc 0E        		.byte	14
 909 03dd 0B        		.byte	11
 910 03de 07        		.byte	7
 911 03df 05        		.byte	5
 912 03e0 03        		.byte	3
 913 03e1 01        		.byte	1
 914 03e2 01        		.byte	1
 915 03e3 00        		.byte	0
 916 03e4 01        		.byte	1
 917 03e5 00        		.byte	0
 918               	.global	bootsong
 919               		.data
 922               	bootsong:
 923 0041 1300      		.word	19
 924 0043 0000      		.word	bootsongnotes
 925               	.global	bootsongnotes
 926               		.section	.progmem.data
 929               	bootsongnotes:
 930 03e6 00        		.byte	0
 931 03e7 04        		.byte	4
 932 03e8 09        		.byte	9
 933 03e9 10        		.byte	16
 934 03ea 18        		.byte	24
 935 03eb 21        		.byte	33
 936 03ec 29        		.byte	41
 937 03ed 2F        		.byte	47
 938 03ee 32        		.byte	50
 939 03ef 31        		.byte	49
 940 03f0 2C        		.byte	44
 941 03f1 23        		.byte	35
 942 03f2 1A        		.byte	26
 943 03f3 11        		.byte	17
 944 03f4 0A        		.byte	10
 945 03f5 05        		.byte	5
 946 03f6 01        		.byte	1
 947 03f7 00        		.byte	0
 948 03f8 00        		.byte	0
GAS LISTING /var/folders/co/coknbUWaExmsbK3adiW3-++++TI/-Tmp-//cck6ifVE.s 			page 17


 949               		.lcomm x.8,1
 950               		.text
 951               	.global	__vector_10
 953               	__vector_10:
 954               	.LFB3:
 955               	.LM1:
 956               	/* prologue: frame size=0 */
 957 0000 1F92      		push __zero_reg__
 958 0002 0F92      		push __tmp_reg__
 959 0004 0FB6      		in __tmp_reg__,__SREG__
 960 0006 0F92      		push __tmp_reg__
 961 0008 1124      		clr __zero_reg__
 962 000a 8F93      		push r24
 963 000c 9F93      		push r25
 964               	/* prologue end (size=7) */
 965               	.LM2:
 966 000e 8091 0000 		lds r24,waiting_for_dark
 967 0012 8823      		tst r24
 968 0014 01F0      		breq .+2
 969 0016 00C0      		rjmp .L1
 970               	.LM3:
 971 0018 88BA      		out 56-0x20,r8
 972               	.LM4:
 973 001a 8091 0000 		lds r24,x.8
 974 001e 8150      		subi r24,lo8(-(-1))
 975 0020 8093 0000 		sts x.8,r24
 976 0024 8F3F      		cpi r24,lo8(-1)
 977 0026 01F0      		breq .+2
 978 0028 00C0      		rjmp .L3
 979               	.LM5:
 980 002a 889B      		sbis 49-0x20,0
 981 002c 00C0      		rjmp .L4
 982               	.LM6:
 983 002e 81B3      		in r24,49-0x20
 984 0030 982F      		mov r25,r24
 985 0032 9074      		andi r25,lo8(64)
 986 0034 86FF      		sbrs r24,6
 987 0036 00C0      		rjmp .L5
 988               	.LM7:
 989 0038 2090 0000 		lds r2,ch1nextnote
 990               	.LM8:
 991 003c 8E98      		cbi 49-0x20,6
 992 003e 00C0      		rjmp .L8
 993               	.L5:
 994               	.LM9:
 995 0040 292E      		mov r2,r25
 996               	.LM10:
 997 0042 8091 0000 		lds r24,ch1restcount
 998 0046 8823      		tst r24
 999 0048 01F0      		breq .L8
 1000               	.LM11:
 1001 004a 8898      		cbi 49-0x20,0
 1002               	.LM12:
 1003 004c 899A      		sbi 49-0x20,1
 1004 004e 00C0      		rjmp .L8
 1005               	.L4:
 1006               	.LM13:
GAS LISTING /var/folders/co/coknbUWaExmsbK3adiW3-++++TI/-Tmp-//cck6ifVE.s 			page 18


 1007 0050 8999      		sbic 49-0x20,1
 1008 0052 00C0      		rjmp .L8
 1009 0054 8E9B      		sbis 49-0x20,6
 1010 0056 00C0      		rjmp .L8
 1011               	.LM14:
 1012 0058 2090 0000 		lds r2,ch1nextnote
 1013               	.LM15:
 1014 005c 8E98      		cbi 49-0x20,6
 1015               	.LM16:
 1016 005e 889A      		sbi 49-0x20,0
 1017               	.L8:
 1018               	.LM17:
 1019 0060 8A9B      		sbis 49-0x20,2
 1020 0062 00C0      		rjmp .L10
 1021               	.LM18:
 1022 0064 81B3      		in r24,49-0x20
 1023 0066 8078      		andi r24,lo8(-128)
 1024 0068 01F0      		breq .L11
 1025               	.LM19:
 1026 006a 3090 0000 		lds r3,ch2nextnote
 1027               	.LM20:
 1028 006e 8F98      		cbi 49-0x20,7
 1029 0070 00C0      		rjmp .L14
 1030               	.L11:
 1031               	.LM21:
 1032 0072 382E      		mov r3,r24
 1033               	.LM22:
 1034 0074 8091 0000 		lds r24,ch2restcount
 1035 0078 8823      		tst r24
 1036 007a 01F0      		breq .L14
 1037               	.LM23:
 1038 007c 8A98      		cbi 49-0x20,2
 1039               	.LM24:
 1040 007e 8B9A      		sbi 49-0x20,3
 1041 0080 00C0      		rjmp .L14
 1042               	.L10:
 1043               	.LM25:
 1044 0082 8B99      		sbic 49-0x20,3
 1045 0084 00C0      		rjmp .L14
 1046 0086 8F9B      		sbis 49-0x20,7
 1047 0088 00C0      		rjmp .L14
 1048               	.LM26:
 1049 008a 3090 0000 		lds r3,ch2nextnote
 1050               	.LM27:
 1051 008e 8F98      		cbi 49-0x20,7
 1052               	.LM28:
 1053 0090 8A9A      		sbi 49-0x20,2
 1054               	.L14:
 1055               	.LM29:
 1056 0092 8899      		sbic 49-0x20,0
 1057 0094 4424      		clr r4
 1058               	.L16:
 1059               	.LM30:
 1060 0096 8A99      		sbic 49-0x20,2
 1061 0098 5524      		clr r5
 1062               	.L17:
 1063               	.LM31:
GAS LISTING /var/folders/co/coknbUWaExmsbK3adiW3-++++TI/-Tmp-//cck6ifVE.s 			page 19


 1064 009a 8899      		sbic 49-0x20,0
 1065 009c 00C0      		rjmp .L19
 1066 009e 8A9B      		sbis 49-0x20,2
 1067 00a0 00C0      		rjmp .L18
 1068               	.L19:
 1069               	.LM32:
 1070 00a2 8091 0000 		lds r24,masterpinmask
 1071 00a6 9DEE      		ldi r25,lo8(-19)
 1072 00a8 892E      		mov r8,r25
 1073 00aa 882A      		or r8,r24
 1074 00ac 00C0      		rjmp .L3
 1075               	.L18:
 1076               	.LM33:
 1077 00ae 8DEE      		ldi r24,lo8(-19)
 1078 00b0 882E      		mov r8,r24
 1079               	.L3:
 1080               	.LM34:
 1081 00b2 889B      		sbis 49-0x20,0
 1082 00b4 00C0      		rjmp .L21
 1083               	/* #APP */
 1084 00b6 062C      		mov     __tmp_reg__, r6
 1085 00b8 27FA      		bst     r2, 7
 1086 00ba 420C      		add     r4, r2
 1087 00bc 03F0      		brvs    von_142
 1088 00be 06F0      		brts    turnon_142
 1089 00c0 00C0      		rjmp    turnoff_142
 1090               	von_142:
 1091 00c2 06F0      		brts    turnoff_142
 1092               	turnon_142:
 1093 00c4 0094      		com     __tmp_reg__
 1094 00c6 8020      		and     r8, __tmp_reg__
 1095 00c8 00C0      	rjmp    done_142
 1096               	turnoff_142:
 1097 00ca 8028      		or      r8, __tmp_reg__
 1098               		done_142:
 1099               		
 1100               	/* #NOAPP */
 1101               	.L21:
 1102               	.LM35:
 1103 00cc 8A9B      		sbis 49-0x20,2
 1104 00ce 00C0      		rjmp .L1
 1105               	/* #APP */
 1106 00d0 072C      		mov     __tmp_reg__, r7
 1107 00d2 37FA      		bst     r3, 7
 1108 00d4 530C      		add     r5, r3
 1109 00d6 03F0      		brvs    von_148
 1110 00d8 06F0      		brts    turnon_148
 1111 00da 00C0      		rjmp    turnoff_148
 1112               	von_148:
 1113 00dc 06F0      		brts    turnoff_148
 1114               	turnon_148:
 1115 00de 0094      		com     __tmp_reg__
 1116 00e0 8020      		and     r8, __tmp_reg__
 1117 00e2 00C0      	rjmp    done_148
 1118               	turnoff_148:
 1119 00e4 8028      		or      r8, __tmp_reg__
 1120               		done_148:
GAS LISTING /var/folders/co/coknbUWaExmsbK3adiW3-++++TI/-Tmp-//cck6ifVE.s 			page 20


 1121               		
 1122               	/* #NOAPP */
 1123               	.L1:
 1124               	/* epilogue: frame size=0 */
 1125 00e6 9F91      		pop r25
 1126 00e8 8F91      		pop r24
 1127 00ea 0F90      		pop __tmp_reg__
 1128 00ec 0FBE      		out __SREG__,__tmp_reg__
 1129 00ee 0F90      		pop __tmp_reg__
 1130 00f0 1F90      		pop __zero_reg__
 1131 00f2 1895      		reti
 1132               	/* epilogue end (size=7) */
 1133               	/* function __vector_10 size 167 (153) */
 1134               	.LFE3:
 1136               		.data
 1137               	.LC0:
 1138 0045 08        		.byte	8
 1139 0046 04        		.byte	4
 1140 0047 01        		.byte	1
 1141               		.text
 1142               	.global	showbootup
 1144               	showbootup:
 1145               	.LFB5:
 1146               	.LM36:
 1147               	/* prologue: frame size=5 */
 1148 00f4 EF92      		push r14
 1149 00f6 FF92      		push r15
 1150 00f8 0F93      		push r16
 1151 00fa 1F93      		push r17
 1152 00fc CF93      		push r28
 1153 00fe DF93      		push r29
 1154 0100 CDB7      		in r28,__SP_L__
 1155 0102 DEB7      		in r29,__SP_H__
 1156 0104 2597      		sbiw r28,5
 1157 0106 0FB6      		in __tmp_reg__,__SREG__
 1158 0108 F894      		cli
 1159 010a DEBF      		out __SP_H__,r29
 1160 010c 0FBE      		out __SREG__,__tmp_reg__
 1161 010e CDBF      		out __SP_L__,r28
 1162               	/* prologue end (size=14) */
 1163               	.LM37:
 1164 0110 4091 0000 		lds r20,bootsongs
 1165 0114 5091 0000 		lds r21,(bootsongs)+1
 1166               	.LM38:
 1167 0118 80E1      		ldi r24,lo8(16)
 1168 011a 8C83      		std Y+4,r24
 1169 011c 24E0      		ldi r18,lo8(4)
 1170 011e E22E      		mov r14,r18
 1171 0120 F12C      		mov r15,__zero_reg__
 1172 0122 EC0E      		add r14,r28
 1173 0124 FD1E      		adc r15,r29
 1174 0126 82E0      		ldi r24,lo8(2)
 1175 0128 8D83      		std Y+5,r24
 1176               	.LM39:
 1177 012a 0C2F      		mov r16,r28
 1178 012c 1D2F      		mov r17,r29
 1179 012e 0F5F      		subi r16,lo8(-(1))
GAS LISTING /var/folders/co/coknbUWaExmsbK3adiW3-++++TI/-Tmp-//cck6ifVE.s 			page 21


 1180 0130 1F4F      		sbci r17,hi8(-(1))
 1181 0132 B12F      		mov r27,r17
 1182 0134 A02F      		mov r26,r16
 1183 0136 E0E0      		ldi r30,lo8(.LC0)
 1184 0138 F0E0      		ldi r31,hi8(.LC0)
 1185 013a 83E0      		ldi r24,lo8(3)
 1186               	.L24:
 1187               	.LM40:
 1188 013c 0190      		ld r0,Z+
 1189 013e 0D92      		st X+,r0
 1190 0140 8150      		subi r24,lo8(-(-1))
 1191 0142 01F4      		brne .L24
 1192               	.LM41:
 1193               	/* #APP */
 1194 0144 F894      		cli
 1195               	.LM42:
 1196               	/* #NOAPP */
 1197 0146 82E0      		ldi r24,lo8(2)
 1198 0148 8093 0000 		sts ch1restcount,r24
 1199               	.LM43:
 1200 014c 899A      		sbi 49-0x20,1
 1201               	.LM44:
 1202               	/* #APP */
 1203 014e 7894      		sei
 1204               	.LM45:
 1205               	/* #NOAPP */
 1206 0150 60E0      		ldi r22,lo8(0)
 1207               	.L44:
 1208               	.LM46:
 1209 0152 FF2D      		mov r31,r15
 1210 0154 EE2D      		mov r30,r14
 1211 0156 E60F      		add r30,r22
 1212 0158 F11D      		adc r31,__zero_reg__
 1213 015a 8081      		ld r24,Z
 1214 015c 8093 0000 		sts masterpinmask,r24
 1215 0160 B12F      		mov r27,r17
 1216 0162 A02F      		mov r26,r16
 1217 0164 72E0      		ldi r23,lo8(2)
 1218               	.L43:
 1219               	.LM47:
 1220 0166 6C90      		ld r6,X
 1221               	.LM48:
 1222 0168 20E0      		ldi r18,lo8(0)
 1223 016a 30E0      		ldi r19,hi8(0)
 1224               	.L63:
 1225 016c F52F      		mov r31,r21
 1226 016e E42F      		mov r30,r20
 1227 0170 8081      		ld r24,Z
 1228 0172 9181      		ldd r25,Z+1
 1229 0174 2817      		cp r18,r24
 1230 0176 3907      		cpc r19,r25
 1231 0178 00F4      		brsh .L58
 1232               	.LBB2:
 1233               	.LM49:
 1234 017a F52F      		mov r31,r21
 1235 017c E42F      		mov r30,r20
 1236 017e 8281      		ldd r24,Z+2
GAS LISTING /var/folders/co/coknbUWaExmsbK3adiW3-++++TI/-Tmp-//cck6ifVE.s 			page 22


 1237 0180 9381      		ldd r25,Z+3
 1238 0182 820F      		add r24,r18
 1239 0184 931F      		adc r25,r19
 1240 0186 2F5F      		subi r18,lo8(-(1))
 1241 0188 3F4F      		sbci r19,hi8(-(1))
 1242 018a F92F      		mov r31,r25
 1243 018c E82F      		mov r30,r24
 1244               	/* #APP */
 1245 018e C895      		lpm
 1246 0190 802D      		mov r24, r0
 1247               		
 1248               	/* #NOAPP */
 1249               	.LBE2:
 1250 0192 8093 0000 		sts ch1nextnote,r24
 1251               	.LM50:
 1252 0196 8E9A      		sbi 49-0x20,6
 1253               	.LM51:
 1254 0198 8E9B      		sbis 49-0x20,6
 1255 019a 00C0      		rjmp .L60
 1256               	.L41:
 1257               	.LM52:
 1258 019c 81B5      		in r24,65-0x20
 1259 019e 8064      		ori r24,lo8(64)
 1260 01a0 81BD      		out 65-0x20,r24
 1261               	.LM53:
 1262 01a2 85B7      		in r24,85-0x20
 1263 01a4 877E      		andi r24,lo8(-25)
 1264 01a6 85BF      		out 85-0x20,r24
 1265               	.LM54:
 1266 01a8 85B7      		in r24,85-0x20
 1267 01aa 8062      		ori r24,lo8(32)
 1268 01ac 85BF      		out 85-0x20,r24
 1269               	/* #APP */
 1270 01ae 8895      		sleep
 1271               		
 1272               	/* #NOAPP */
 1273 01b0 85B7      		in r24,85-0x20
 1274 01b2 8F7D      		andi r24,lo8(-33)
 1275 01b4 85BF      		out 85-0x20,r24
 1276 01b6 8E99      		sbic 49-0x20,6
 1277 01b8 00C0      		rjmp .L41
 1278               	.L60:
 1279               	.LM55:
 1280 01ba 2F5F      		subi r18,lo8(-(1))
 1281 01bc 3F4F      		sbci r19,hi8(-(1))
 1282 01be 00C0      		rjmp .L63
 1283               	.L58:
 1284               	.LM56:
 1285 01c0 7150      		subi r23,lo8(-(-1))
 1286 01c2 1196      		adiw r26,1
 1287 01c4 77FF      		sbrs r23,7
 1288 01c6 00C0      		rjmp .L43
 1289               	.LM57:
 1290 01c8 6F5F      		subi r22,lo8(-(1))
 1291 01ca 6230      		cpi r22,lo8(2)
 1292 01cc 00F4      		brsh .+2
 1293 01ce 00C0      		rjmp .L44
GAS LISTING /var/folders/co/coknbUWaExmsbK3adiW3-++++TI/-Tmp-//cck6ifVE.s 			page 23


 1294               	.LM58:
 1295               	/* #APP */
 1296 01d0 F894      		cli
 1297               	.LM59:
 1298               	/* #NOAPP */
 1299 01d2 81E0      		ldi r24,lo8(1)
 1300 01d4 8093 0000 		sts ch1restcount,r24
 1301               	.LM60:
 1302               	/* #APP */
 1303 01d8 7894      		sei
 1304               	.LM61:
 1305               	/* #NOAPP */
 1306 01da 889B      		sbis 49-0x20,0
 1307 01dc 00C0      		rjmp .L62
 1308               	.L52:
 1309               	.LM62:
 1310 01de 81B5      		in r24,65-0x20
 1311 01e0 8064      		ori r24,lo8(64)
 1312 01e2 81BD      		out 65-0x20,r24
 1313               	.LM63:
 1314 01e4 85B7      		in r24,85-0x20
 1315 01e6 877E      		andi r24,lo8(-25)
 1316 01e8 85BF      		out 85-0x20,r24
 1317               	.LM64:
 1318 01ea 85B7      		in r24,85-0x20
 1319 01ec 8062      		ori r24,lo8(32)
 1320 01ee 85BF      		out 85-0x20,r24
 1321               	/* #APP */
 1322 01f0 8895      		sleep
 1323               		
 1324               	/* #NOAPP */
 1325 01f2 85B7      		in r24,85-0x20
 1326 01f4 8F7D      		andi r24,lo8(-33)
 1327 01f6 85BF      		out 85-0x20,r24
 1328 01f8 8899      		sbic 49-0x20,0
 1329 01fa 00C0      		rjmp .L52
 1330               	.L62:
 1331               	/* epilogue: frame size=5 */
 1332 01fc 2596      		adiw r28,5
 1333 01fe 0FB6      		in __tmp_reg__,__SREG__
 1334 0200 F894      		cli
 1335 0202 DEBF      		out __SP_H__,r29
 1336 0204 0FBE      		out __SREG__,__tmp_reg__
 1337 0206 CDBF      		out __SP_L__,r28
 1338 0208 DF91      		pop r29
 1339 020a CF91      		pop r28
 1340 020c 1F91      		pop r17
 1341 020e 0F91      		pop r16
 1342 0210 FF90      		pop r15
 1343 0212 EF90      		pop r14
 1344 0214 0895      		ret
 1345               	/* epilogue end (size=13) */
 1346               	/* function showbootup size 160 (133) */
 1347               	.LFE5:
 1349               		.data
 1352               	lfsr.6:
 1353 0048 CE74      		.word	29902
GAS LISTING /var/folders/co/coknbUWaExmsbK3adiW3-++++TI/-Tmp-//cck6ifVE.s 			page 24


 1354               		.text
 1355               	.global	randbits
 1357               	randbits:
 1358               	.LFB10:
 1359               	.LM65:
 1360               	/* prologue: frame size=0 */
 1361               	/* prologue end (size=0) */
 1362 0216 E82F      		mov r30,r24
 1363               	.LM66:
 1364 0218 8091 0000 		lds r24,lfsr.6
 1365 021c 9091 0000 		lds r25,(lfsr.6)+1
 1366 0220 0097      		sbiw r24,0
 1367 0222 01F4      		brne .L65
 1368 0224 9DEE      		ldi r25,lo8(-19)
 1369 0226 82E1      		ldi r24,lo8(18)
 1370               	.L66:
 1371               	.LM67:
 1372 0228 98BB      		out 56-0x20,r25
 1373 022a 88BB      		out 56-0x20,r24
 1374 022c 00C0      		rjmp .L66
 1375               	.L65:
 1376 022e 282F      		mov r18,r24
 1377 0230 392F      		mov r19,r25
 1378 0232 220F      		lsl r18
 1379 0234 331F      		rol r19
 1380               	.LM68:
 1381 0236 97FF      		sbrs r25,7
 1382 0238 00C0      		rjmp .L70
 1383               	.LM69:
 1384 023a 87E8      		ldi r24,lo8(7559)
 1385 023c 9DE1      		ldi r25,hi8(7559)
 1386 023e 2827      		eor r18,r24
 1387 0240 3927      		eor r19,r25
 1388               	.L70:
 1389 0242 3093 0000 		sts (lfsr.6)+1,r19
 1390 0246 2093 0000 		sts lfsr.6,r18
 1391               	.LBB3:
 1392               	.LM70:
 1393 024a FF27      		clr r31
 1394 024c E050      		subi r30,lo8(-(bitmasks))
 1395 024e F040      		sbci r31,hi8(-(bitmasks))
 1396               	/* #APP */
 1397 0250 C895      		lpm
 1398 0252 902D      		mov r25, r0
 1399               		
 1400               	/* #NOAPP */
 1401               	.LBE3:
 1402 0254 8091 0000 		lds r24,lfsr.6
 1403 0258 8923      		and r24,r25
 1404               	.LM71:
 1405 025a 9927      		clr r25
 1406               	/* epilogue: frame size=0 */
 1407 025c 0895      		ret
 1408               	/* epilogue end (size=1) */
 1409               	/* function randbits size 40 (39) */
 1410               	.LFE10:
 1412               	.global	randwaitval
GAS LISTING /var/folders/co/coknbUWaExmsbK3adiW3-++++TI/-Tmp-//cck6ifVE.s 			page 25


 1414               	randwaitval:
 1415               	.LFB6:
 1416               	.LM72:
 1417               	/* prologue: frame size=0 */
 1418 025e 1F93      		push r17
 1419               	/* prologue end (size=1) */
 1420               	.LM73:
 1421 0260 84E0      		ldi r24,lo8(4)
 1422 0262 00D0      		rcall randbits
 1423 0264 1091 0000 		lds r17,mood
 1424 0268 180F      		add r17,r24
 1425 026a 84E0      		ldi r24,lo8(4)
 1426 026c 00D0      		rcall randbits
 1427 026e 180F      		add r17,r24
 1428 0270 83E0      		ldi r24,lo8(3)
 1429 0272 00D0      		rcall randbits
 1430 0274 180F      		add r17,r24
 1431 0276 82E0      		ldi r24,lo8(2)
 1432 0278 00D0      		rcall randbits
 1433 027a 180F      		add r17,r24
 1434 027c 82E0      		ldi r24,lo8(2)
 1435 027e 00D0      		rcall randbits
 1436 0280 180F      		add r17,r24
 1437 0282 83E0      		ldi r24,lo8(3)
 1438 0284 00D0      		rcall randbits
 1439 0286 181B      		sub r17,r24
 1440               	.LM74:
 1441 0288 812F      		mov r24,r17
 1442 028a 9927      		clr r25
 1443               	/* epilogue: frame size=0 */
 1444 028c 1F91      		pop r17
 1445 028e 0895      		ret
 1446               	/* epilogue end (size=2) */
 1447               	/* function randwaitval size 25 (22) */
 1448               	.LFE6:
 1450               	.global	randscaleval
 1452               	randscaleval:
 1453               	.LFB7:
 1454               	.LM75:
 1455               	/* prologue: frame size=0 */
 1456 0290 1F93      		push r17
 1457               	/* prologue end (size=1) */
 1458               	.LM76:
 1459 0292 86E0      		ldi r24,lo8(6)
 1460 0294 00D0      		rcall randbits
 1461 0296 182F      		mov r17,r24
 1462 0298 85E0      		ldi r24,lo8(5)
 1463 029a 00D0      		rcall randbits
 1464 029c 180F      		add r17,r24
 1465 029e 84E0      		ldi r24,lo8(4)
 1466 02a0 00D0      		rcall randbits
 1467 02a2 180F      		add r17,r24
 1468 02a4 83E0      		ldi r24,lo8(3)
 1469 02a6 00D0      		rcall randbits
 1470 02a8 180F      		add r17,r24
 1471 02aa 82E0      		ldi r24,lo8(2)
 1472 02ac 00D0      		rcall randbits
GAS LISTING /var/folders/co/coknbUWaExmsbK3adiW3-++++TI/-Tmp-//cck6ifVE.s 			page 26


 1473 02ae 180F      		add r17,r24
 1474 02b0 165C      		subi r17,lo8(-(58))
 1475               	.LM77:
 1476 02b2 812F      		mov r24,r17
 1477 02b4 9927      		clr r25
 1478               	/* epilogue: frame size=0 */
 1479 02b6 1F91      		pop r17
 1480 02b8 0895      		ret
 1481               	/* epilogue end (size=2) */
 1482               	/* function randscaleval size 21 (18) */
 1483               	.LFE7:
 1485               	.global	pickapin
 1487               	pickapin:
 1488               	.LFB8:
 1489               	.LM78:
 1490               	/* prologue: frame size=0 */
 1491 02ba CF93      		push r28
 1492               	/* prologue end (size=1) */
 1493 02bc C82F      		mov r28,r24
 1494               	.LM79:
 1495 02be 88E0      		ldi r24,lo8(8)
 1496 02c0 00D0      		rcall randbits
 1497               	.LM80:
 1498 02c2 282F      		mov r18,r24
 1499 02c4 3327      		clr r19
 1500 02c6 932F      		mov r25,r19
 1501 02c8 822F      		mov r24,r18
 1502 02ca 880F      		lsl r24
 1503 02cc 991F      		rol r25
 1504 02ce 820F      		add r24,r18
 1505 02d0 931F      		adc r25,r19
 1506 02d2 892F      		mov r24,r25
 1507 02d4 9927      		clr r25
 1508               	.LM81:
 1509 02d6 9927      		clr r25
 1510 02d8 8130      		cpi r24,1
 1511 02da 9105      		cpc r25,__zero_reg__
 1512 02dc 01F0      		breq .L77
 1513               	.LM82:
 1514 02de 8230      		cpi r24,2
 1515 02e0 9105      		cpc r25,__zero_reg__
 1516 02e2 04F4      		brge .L82
 1517 02e4 892B      		or r24,r25
 1518 02e6 01F0      		breq .L75
 1519 02e8 00C0      		rjmp .L81
 1520               	.L82:
 1521 02ea 0297      		sbiw r24,2
 1522 02ec 01F0      		breq .L79
 1523 02ee 00C0      		rjmp .L81
 1524               	.L75:
 1525               	.LM83:
 1526 02f0 88E0      		ldi r24,lo8(8)
 1527 02f2 8C17      		cp r24,r28
 1528 02f4 01F4      		brne .L74
 1529               	.L77:
 1530               	.LM84:
 1531 02f6 84E0      		ldi r24,lo8(4)
GAS LISTING /var/folders/co/coknbUWaExmsbK3adiW3-++++TI/-Tmp-//cck6ifVE.s 			page 27


 1532 02f8 8C17      		cp r24,r28
 1533 02fa 01F4      		brne .L74
 1534               	.L79:
 1535               	.LM85:
 1536 02fc 81E0      		ldi r24,lo8(1)
 1537 02fe 8C17      		cp r24,r28
 1538 0300 01F4      		brne .L74
 1539               	.L81:
 1540               	.LM86:
 1541 0302 88E0      		ldi r24,lo8(8)
 1542               	.L74:
 1543               	.LM87:
 1544 0304 9927      		clr r25
 1545               	/* epilogue: frame size=0 */
 1546 0306 CF91      		pop r28
 1547 0308 0895      		ret
 1548               	/* epilogue end (size=2) */
 1549               	/* function pickapin size 41 (38) */
 1550               	.LFE8:
 1552               		.lcomm ticker.7,1
 1553               	.global	pickmaster
 1555               	pickmaster:
 1556               	.LFB9:
 1557               	.LM88:
 1558               	/* prologue: frame size=0 */
 1559               	/* prologue end (size=0) */
 1560               	.LM89:
 1561 030a 83E0      		ldi r24,lo8(3)
 1562 030c 00D0      		rcall randbits
 1563 030e 9091 0000 		lds r25,ticker.7
 1564 0312 8823      		tst r24
 1565 0314 01F4      		brne .L84
 1566               	.LM90:
 1567 0316 90FD      		sbrc r25,0
 1568 0318 00C0      		rjmp .L90
 1569 031a 82E0      		ldi r24,lo8(2)
 1570 031c 90E0      		ldi r25,hi8(2)
 1571 031e 0895      		ret
 1572               	.L84:
 1573               	.LM91:
 1574 0320 892F      		mov r24,r25
 1575 0322 8F5F      		subi r24,lo8(-(1))
 1576 0324 8093 0000 		sts ticker.7,r24
 1577 0328 80FF      		sbrs r24,0
 1578 032a 00C0      		rjmp .L88
 1579               	.L90:
 1580 032c 80E1      		ldi r24,lo8(16)
 1581 032e 90E0      		ldi r25,hi8(16)
 1582 0330 0895      		ret
 1583               	.L88:
 1584 0332 82E0      		ldi r24,lo8(2)
 1585 0334 90E0      		ldi r25,hi8(2)
 1586               	.LM92:
 1587 0336 0895      		ret
 1588               	/* epilogue: frame size=0 */
 1589               	/* epilogue: noreturn */
 1590               	/* epilogue end (size=0) */
GAS LISTING /var/folders/co/coknbUWaExmsbK3adiW3-++++TI/-Tmp-//cck6ifVE.s 			page 28


 1591               	/* function pickmaster size 23 (23) */
 1592               	.LFE9:
 1594               	.global	pickasong
 1596               	pickasong:
 1597               	.LFB11:
 1598               	.LM93:
 1599               	/* prologue: frame size=0 */
 1600               	/* prologue end (size=0) */
 1601               	.LM94:
 1602 0338 88E0      		ldi r24,lo8(8)
 1603 033a 00D0      		rcall randbits
 1604 033c E82F      		mov r30,r24
 1605 033e FF27      		clr r31
 1606 0340 74E0      		ldi r23,4
 1607 0342 F695      	1:	lsr r31
 1608 0344 E795      		ror r30
 1609 0346 7A95      		dec r23
 1610 0348 01F4      		brne 1b
 1611 034a EE0F      		add r30,r30
 1612 034c FF1F      		adc r31,r31
 1613 034e E050      		subi r30,lo8(-(songs))
 1614 0350 F040      		sbci r31,hi8(-(songs))
 1615               	.LM95:
 1616 0352 8081      		ld r24,Z
 1617 0354 9181      		ldd r25,Z+1
 1618               	/* epilogue: frame size=0 */
 1619 0356 0895      		ret
 1620               	/* epilogue end (size=1) */
 1621               	/* function pickasong size 16 (15) */
 1622               	.LFE11:
 1625               	read_adc:
 1626               	.LFB12:
 1627               	.LM96:
 1628               	/* prologue: frame size=0 */
 1629               	/* prologue end (size=0) */
 1630               	.LM97:
 1631 0358 90B5      		in r25,64-0x20
 1632 035a 9E7F      		andi r25,lo8(-2)
 1633 035c 90BD      		out 64-0x20,r25
 1634               	.LM98:
 1635 035e 8062      		ori r24,lo8(32)
 1636 0360 87B9      		out 39-0x20,r24
 1637               	.L93:
 1638               	.LM99:
 1639 0362 3699      		sbic 38-0x20,6
 1640 0364 00C0      		rjmp .L93
 1641               	.LM100:
 1642 0366 379A      		sbi 38-0x20,7
 1643               	.LM101:
 1644 0368 85B7      		in r24,85-0x20
 1645 036a 877E      		andi r24,lo8(-25)
 1646 036c 8860      		ori r24,lo8(8)
 1647 036e 85BF      		out 85-0x20,r24
 1648               	.LM102:
 1649 0370 85B7      		in r24,85-0x20
 1650 0372 8062      		ori r24,lo8(32)
 1651 0374 85BF      		out 85-0x20,r24
GAS LISTING /var/folders/co/coknbUWaExmsbK3adiW3-++++TI/-Tmp-//cck6ifVE.s 			page 29


 1652               	/* #APP */
 1653 0376 8895      		sleep
 1654               		
 1655               	/* #NOAPP */
 1656 0378 85B7      		in r24,85-0x20
 1657 037a 8F7D      		andi r24,lo8(-33)
 1658 037c 85BF      		out 85-0x20,r24
 1659               	.LM103:
 1660 037e 95B1      		in r25,37-0x20
 1661               	.LM104:
 1662 0380 3798      		cbi 38-0x20,7
 1663               	.LM105:
 1664 0382 80B5      		in r24,64-0x20
 1665 0384 8160      		ori r24,lo8(1)
 1666 0386 80BD      		out 64-0x20,r24
 1667               	.LM106:
 1668 0388 892F      		mov r24,r25
 1669 038a 9927      		clr r25
 1670               	/* epilogue: frame size=0 */
 1671 038c 0895      		ret
 1672               	/* epilogue end (size=1) */
 1673               	/* function read_adc size 30 (29) */
 1674               	.LFE12:
 1676               		.data
 1679               	debounce.5:
 1680 004a 0A        		.byte	10
 1681               		.text
 1683               	still_dark:
 1684               	.LFB14:
 1685               	.LM107:
 1686               	/* prologue: frame size=0 */
 1687               	/* prologue end (size=0) */
 1688               	.LM108:
 1689 038e 8FEE      		ldi r24,lo8(-17)
 1690 0390 87BB      		out 55-0x20,r24
 1691               	.LM109:
 1692 0392 8DEF      		ldi r24,lo8(-3)
 1693 0394 88BB      		out 56-0x20,r24
 1694               	.LM110:
 1695 0396 82E0      		ldi r24,lo8(2)
 1696 0398 00D0      		rcall read_adc
 1697               	.LM111:
 1698 039a 9DEE      		ldi r25,lo8(-19)
 1699 039c 98BB      		out 56-0x20,r25
 1700               	.LM112:
 1701 039e 813E      		cpi r24,lo8(-31)
 1702 03a0 00F0      		brlo .L102
 1703               	.LM113:
 1704 03a2 8091 0000 		lds r24,debounce.5
 1705 03a6 8150      		subi r24,lo8(-(-1))
 1706 03a8 8093 0000 		sts debounce.5,r24
 1707 03ac 8F3F      		cpi r24,lo8(-1)
 1708 03ae 01F4      		brne .L104
 1709               	.LM114:
 1710 03b0 8AE0      		ldi r24,lo8(10)
 1711 03b2 8093 0000 		sts debounce.5,r24
 1712               	.LM115:
GAS LISTING /var/folders/co/coknbUWaExmsbK3adiW3-++++TI/-Tmp-//cck6ifVE.s 			page 30


 1713 03b6 81E0      		ldi r24,lo8(1)
 1714 03b8 8093 0000 		sts is_dark,r24
 1715 03bc 00C0      		rjmp .L104
 1716               	.L102:
 1717               	.LM116:
 1718 03be 8AE0      		ldi r24,lo8(10)
 1719 03c0 8093 0000 		sts debounce.5,r24
 1720               	.LM117:
 1721 03c4 1092 0000 		sts is_dark,__zero_reg__
 1722               	.L104:
 1723               	.LM118:
 1724 03c8 8091 0000 		lds r24,is_dark
 1725               	.LM119:
 1726 03cc 9927      		clr r25
 1727               	/* epilogue: frame size=0 */
 1728 03ce 0895      		ret
 1729               	/* epilogue end (size=1) */
 1730               	/* function still_dark size 33 (32) */
 1731               	.LFE14:
 1733               	.global	__vector_12
 1735               	__vector_12:
 1736               	.LFB2:
 1737               	.LM120:
 1738               	/* prologue: frame size=0 */
 1739 03d0 1F92      		push __zero_reg__
 1740 03d2 0F92      		push __tmp_reg__
 1741 03d4 0FB6      		in __tmp_reg__,__SREG__
 1742 03d6 0F92      		push __tmp_reg__
 1743 03d8 1124      		clr __zero_reg__
 1744 03da 2F93      		push r18
 1745 03dc 3F93      		push r19
 1746 03de 4F93      		push r20
 1747 03e0 5F93      		push r21
 1748 03e2 6F93      		push r22
 1749 03e4 7F93      		push r23
 1750 03e6 8F93      		push r24
 1751 03e8 9F93      		push r25
 1752 03ea AF93      		push r26
 1753 03ec BF93      		push r27
 1754 03ee EF93      		push r30
 1755 03f0 FF93      		push r31
 1756               	/* prologue end (size=17) */
 1757               	.LM121:
 1758 03f2 00D0      		rcall still_dark
 1759               	.LM122:
 1760 03f4 899B      		sbis 49-0x20,1
 1761 03f6 00C0      		rjmp .L106
 1762               	.LM123:
 1763 03f8 8091 0000 		lds r24,ch1restcount
 1764 03fc 8150      		subi r24,lo8(-(-1))
 1765 03fe 8093 0000 		sts ch1restcount,r24
 1766 0402 8091 0000 		lds r24,ch1restcount
 1767 0406 8823      		tst r24
 1768 0408 01F4      		brne .L106
 1769 040a 8998      		cbi 49-0x20,1
 1770               	.L106:
 1771               	.LM124:
GAS LISTING /var/folders/co/coknbUWaExmsbK3adiW3-++++TI/-Tmp-//cck6ifVE.s 			page 31


 1772 040c 8B9B      		sbis 49-0x20,3
 1773 040e 00C0      		rjmp .L107
 1774 0410 8091 0000 		lds r24,ch2restcount
 1775 0414 8150      		subi r24,lo8(-(-1))
 1776 0416 8093 0000 		sts ch2restcount,r24
 1777 041a 8091 0000 		lds r24,ch2restcount
 1778 041e 8823      		tst r24
 1779 0420 01F4      		brne .L107
 1780 0422 8B98      		cbi 49-0x20,3
 1781               	.L107:
 1782               	.LM125:
 1783 0424 8C99      		sbic 49-0x20,4
 1784 0426 00C0      		rjmp .L105
 1785 0428 8091 0000 		lds r24,mood_count
 1786 042c 9091 0000 		lds r25,(mood_count)+1
 1787 0430 0197      		sbiw r24,1
 1788 0432 9093 0000 		sts (mood_count)+1,r25
 1789 0436 8093 0000 		sts mood_count,r24
 1790 043a 892B      		or r24,r25
 1791 043c 01F4      		brne .L105
 1792 043e 8C9A      		sbi 49-0x20,4
 1793               	.L105:
 1794               	/* epilogue: frame size=0 */
 1795 0440 FF91      		pop r31
 1796 0442 EF91      		pop r30
 1797 0444 BF91      		pop r27
 1798 0446 AF91      		pop r26
 1799 0448 9F91      		pop r25
 1800 044a 8F91      		pop r24
 1801 044c 7F91      		pop r23
 1802 044e 6F91      		pop r22
 1803 0450 5F91      		pop r21
 1804 0452 4F91      		pop r20
 1805 0454 3F91      		pop r19
 1806 0456 2F91      		pop r18
 1807 0458 0F90      		pop __tmp_reg__
 1808 045a 0FBE      		out __SREG__,__tmp_reg__
 1809 045c 0F90      		pop __tmp_reg__
 1810 045e 1F90      		pop __zero_reg__
 1811 0460 1895      		reti
 1812               	/* epilogue end (size=17) */
 1813               	/* function __vector_12 size 73 (39) */
 1814               	.LFE2:
 1816               	.global	read_temperature
 1818               	read_temperature:
 1819               	.LFB13:
 1820               	.LM126:
 1821               	/* prologue: frame size=0 */
 1822               	/* prologue end (size=0) */
 1823               	.LM127:
 1824 0462 8FE8      		ldi r24,lo8(-113)
 1825 0464 00D0      		rcall read_adc
 1826               	.LM128:
 1827 0466 9927      		clr r25
 1828               	/* epilogue: frame size=0 */
 1829 0468 0895      		ret
 1830               	/* epilogue end (size=1) */
GAS LISTING /var/folders/co/coknbUWaExmsbK3adiW3-++++TI/-Tmp-//cck6ifVE.s 			page 32


 1831               	/* function read_temperature size 4 (3) */
 1832               	.LFE13:
 1834               	.global	wait_for_dark
 1836               	wait_for_dark:
 1837               	.LFB15:
 1838               	.LM129:
 1839               	/* prologue: frame size=0 */
 1840               	/* prologue end (size=0) */
 1841               	.LM130:
 1842 046a 81E0      		ldi r24,lo8(1)
 1843 046c 8093 0000 		sts waiting_for_dark,r24
 1844               	.LM131:
 1845 0470 19BE      		out 89-0x20,__zero_reg__
 1846               	.L121:
 1847               	.LM132:
 1848 0472 8091 0000 		lds r24,is_dark
 1849 0476 8823      		tst r24
 1850 0478 01F0      		breq .L120
 1851               	.LM133:
 1852 047a 81B5      		in r24,65-0x20
 1853 047c 8064      		ori r24,lo8(64)
 1854 047e 81BD      		out 65-0x20,r24
 1855               	.LM134:
 1856 0480 85B7      		in r24,85-0x20
 1857 0482 877E      		andi r24,lo8(-25)
 1858 0484 8061      		ori r24,lo8(16)
 1859 0486 85BF      		out 85-0x20,r24
 1860               	.LM135:
 1861 0488 85B7      		in r24,85-0x20
 1862 048a 8062      		ori r24,lo8(32)
 1863 048c 85BF      		out 85-0x20,r24
 1864               	/* #APP */
 1865 048e 8895      		sleep
 1866               		
 1867               	/* #NOAPP */
 1868 0490 85B7      		in r24,85-0x20
 1869 0492 8F7D      		andi r24,lo8(-33)
 1870 0494 85BF      		out 85-0x20,r24
 1871 0496 00C0      		rjmp .L121
 1872               	.L120:
 1873               	.LM136:
 1874 0498 80E1      		ldi r24,lo8(16)
 1875 049a 89BF      		out 89-0x20,r24
 1876               	.LM137:
 1877 049c 1092 0000 		sts waiting_for_dark,__zero_reg__
 1878               	/* epilogue: frame size=0 */
 1879 04a0 0895      		ret
 1880               	/* epilogue end (size=1) */
 1881               	/* function wait_for_dark size 31 (30) */
 1882               	.LFE15:
 1884               		.lcomm ch1song.0,2
 1885               		.lcomm ch2song.1,2
 1886               		.lcomm ch1noteptr.2,2
 1887               		.lcomm ch2noteptr.3,2
 1888               		.lcomm temp.4,1
 1889               	.global	lighted_fireflies
 1891               	lighted_fireflies:
GAS LISTING /var/folders/co/coknbUWaExmsbK3adiW3-++++TI/-Tmp-//cck6ifVE.s 			page 33


 1892               	.LFB16:
 1893               	.LM138:
 1894               	/* prologue: frame size=0 */
 1895               	/* prologue end (size=0) */
 1896               	.LM139:
 1897 04a2 00C0      		rjmp .L155
 1898               	.L150:
 1899               	.LM140:
 1900 04a4 81B5      		in r24,65-0x20
 1901 04a6 8064      		ori r24,lo8(64)
 1902 04a8 81BD      		out 65-0x20,r24
 1903               	.LM141:
 1904 04aa 8899      		sbic 49-0x20,0
 1905 04ac 00C0      		rjmp .L126
 1906 04ae 8A9B      		sbis 49-0x20,2
 1907 04b0 00C0      		rjmp .L125
 1908               	.L126:
 1909               	.LM142:
 1910 04b2 889B      		sbis 49-0x20,0
 1911 04b4 00C0      		rjmp .L127
 1912 04b6 8E99      		sbic 49-0x20,6
 1913 04b8 00C0      		rjmp .L127
 1914               	.LM143:
 1915 04ba E091 0000 		lds r30,ch1song.0
 1916 04be F091 0000 		lds r31,(ch1song.0)+1
 1917 04c2 2091 0000 		lds r18,ch1noteptr.2
 1918 04c6 3091 0000 		lds r19,(ch1noteptr.2)+1
 1919 04ca 8081      		ld r24,Z
 1920 04cc 9181      		ldd r25,Z+1
 1921 04ce 2817      		cp r18,r24
 1922 04d0 3907      		cpc r19,r25
 1923 04d2 01F0      		breq .L127
 1924               	.LBB4:
 1925               	.LM144:
 1926 04d4 0280      		ldd __tmp_reg__,Z+2
 1927 04d6 F381      		ldd r31,Z+3
 1928 04d8 E02D      		mov r30,__tmp_reg__
 1929 04da E20F      		add r30,r18
 1930 04dc F31F      		adc r31,r19
 1931 04de 2F5F      		subi r18,lo8(-(1))
 1932 04e0 3F4F      		sbci r19,hi8(-(1))
 1933 04e2 3093 0000 		sts (ch1noteptr.2)+1,r19
 1934 04e6 2093 0000 		sts ch1noteptr.2,r18
 1935               	/* #APP */
 1936 04ea C895      		lpm
 1937 04ec 802D      		mov r24, r0
 1938               		
 1939               	/* #NOAPP */
 1940               	.LBE4:
 1941               	.LM145:
 1942 04ee 9091 0000 		lds r25,ch1scale
 1943 04f2 282F      		mov r18,r24
 1944 04f4 3327      		clr r19
 1945 04f6 892F      		mov r24,r25
 1946 04f8 9927      		clr r25
 1947 04fa 732F      		mov r23,r19
 1948 04fc 622F      		mov r22,r18
GAS LISTING /var/folders/co/coknbUWaExmsbK3adiW3-++++TI/-Tmp-//cck6ifVE.s 			page 34


 1949 04fe 00D0      		rcall __mulhi3
 1950 0500 892F      		mov r24,r25
 1951 0502 9927      		clr r25
 1952 0504 8093 0000 		sts temp.4,r24
 1953               	.LM146:
 1954               	/* #APP */
 1955 0508 F894      		cli
 1956               	.LM147:
 1957               	/* #NOAPP */
 1958 050a 8091 0000 		lds r24,temp.4
 1959 050e 8093 0000 		sts ch1nextnote,r24
 1960               	.LM148:
 1961 0512 8E9A      		sbi 49-0x20,6
 1962               	.LM149:
 1963               	/* #APP */
 1964 0514 7894      		sei
 1965               	.LM150:
 1966               	/* #NOAPP */
 1967 0516 00C0      		rjmp .L155
 1968               	.L127:
 1969               	.LM151:
 1970 0518 8A9B      		sbis 49-0x20,2
 1971 051a 00C0      		rjmp .L129
 1972 051c 8F99      		sbic 49-0x20,7
 1973 051e 00C0      		rjmp .L129
 1974               	.LM152:
 1975 0520 E091 0000 		lds r30,ch2song.1
 1976 0524 F091 0000 		lds r31,(ch2song.1)+1
 1977 0528 2091 0000 		lds r18,ch2noteptr.3
 1978 052c 3091 0000 		lds r19,(ch2noteptr.3)+1
 1979 0530 8081      		ld r24,Z
 1980 0532 9181      		ldd r25,Z+1
 1981 0534 2817      		cp r18,r24
 1982 0536 3907      		cpc r19,r25
 1983 0538 01F0      		breq .L129
 1984               	.LBB5:
 1985               	.LM153:
 1986 053a 0280      		ldd __tmp_reg__,Z+2
 1987 053c F381      		ldd r31,Z+3
 1988 053e E02D      		mov r30,__tmp_reg__
 1989 0540 E20F      		add r30,r18
 1990 0542 F31F      		adc r31,r19
 1991 0544 2F5F      		subi r18,lo8(-(1))
 1992 0546 3F4F      		sbci r19,hi8(-(1))
 1993 0548 3093 0000 		sts (ch2noteptr.3)+1,r19
 1994 054c 2093 0000 		sts ch2noteptr.3,r18
 1995               	/* #APP */
 1996 0550 C895      		lpm
 1997 0552 802D      		mov r24, r0
 1998               		
 1999               	/* #NOAPP */
 2000               	.LBE5:
 2001               	.LM154:
 2002 0554 9091 0000 		lds r25,ch2scale
 2003 0558 282F      		mov r18,r24
 2004 055a 3327      		clr r19
 2005 055c 892F      		mov r24,r25
GAS LISTING /var/folders/co/coknbUWaExmsbK3adiW3-++++TI/-Tmp-//cck6ifVE.s 			page 35


 2006 055e 9927      		clr r25
 2007 0560 732F      		mov r23,r19
 2008 0562 622F      		mov r22,r18
 2009 0564 00D0      		rcall __mulhi3
 2010 0566 892F      		mov r24,r25
 2011 0568 9927      		clr r25
 2012 056a 8093 0000 		sts temp.4,r24
 2013               	.LM155:
 2014               	/* #APP */
 2015 056e F894      		cli
 2016               	.LM156:
 2017               	/* #NOAPP */
 2018 0570 8091 0000 		lds r24,temp.4
 2019 0574 8093 0000 		sts ch2nextnote,r24
 2020               	.LM157:
 2021 0578 8F9A      		sbi 49-0x20,7
 2022               	.LM158:
 2023               	/* #APP */
 2024 057a 7894      		sei
 2025               	.LM159:
 2026               	/* #NOAPP */
 2027 057c 00C0      		rjmp .L155
 2028               	.L129:
 2029               	.LM160:
 2030 057e 889B      		sbis 49-0x20,0
 2031 0580 00C0      		rjmp .L131
 2032 0582 8091 0000 		lds r24,ch1restcount
 2033 0586 8823      		tst r24
 2034 0588 01F4      		brne .L131
 2035               	.LM161:
 2036 058a 00D0      		rcall randwaitval
 2037 058c 8093 0000 		sts temp.4,r24
 2038               	.LM162:
 2039               	/* #APP */
 2040 0590 F894      		cli
 2041               	.LM163:
 2042               	/* #NOAPP */
 2043 0592 8091 0000 		lds r24,temp.4
 2044 0596 8093 0000 		sts ch1restcount,r24
 2045               	.LM164:
 2046               	/* #APP */
 2047 059a 7894      		sei
 2048               	.LM165:
 2049               	/* #NOAPP */
 2050 059c 00C0      		rjmp .L155
 2051               	.L131:
 2052               	.LM166:
 2053 059e 8A9B      		sbis 49-0x20,2
 2054 05a0 00C0      		rjmp .L125
 2055 05a2 8091 0000 		lds r24,ch2restcount
 2056 05a6 8823      		tst r24
 2057 05a8 01F4      		brne .L125
 2058               	.LM167:
 2059 05aa 00D0      		rcall randwaitval
 2060 05ac 8093 0000 		sts temp.4,r24
 2061               	.LM168:
 2062               	/* #APP */
GAS LISTING /var/folders/co/coknbUWaExmsbK3adiW3-++++TI/-Tmp-//cck6ifVE.s 			page 36


 2063 05b0 F894      		cli
 2064               	.LM169:
 2065               	/* #NOAPP */
 2066 05b2 8091 0000 		lds r24,temp.4
 2067 05b6 8093 0000 		sts ch2restcount,r24
 2068               	.LM170:
 2069               	/* #APP */
 2070 05ba 7894      		sei
 2071               	.LM171:
 2072               	/* #NOAPP */
 2073 05bc 00C0      		rjmp .L155
 2074               	.L125:
 2075               	.LM172:
 2076 05be 8899      		sbic 49-0x20,0
 2077 05c0 00C0      		rjmp .L133
 2078 05c2 8999      		sbic 49-0x20,1
 2079 05c4 00C0      		rjmp .L133
 2080 05c6 8E99      		sbic 49-0x20,6
 2081 05c8 00C0      		rjmp .L133
 2082               	.LM173:
 2083 05ca 00D0      		rcall pickasong
 2084 05cc 9093 0000 		sts (ch1song.0)+1,r25
 2085 05d0 8093 0000 		sts ch1song.0,r24
 2086               	.LM174:
 2087 05d4 1092 0000 		sts (ch1noteptr.2)+1,__zero_reg__
 2088 05d8 1092 0000 		sts ch1noteptr.2,__zero_reg__
 2089               	.LM175:
 2090 05dc 872D      		mov r24,r7
 2091 05de 00D0      		rcall pickapin
 2092 05e0 682E      		mov r6,r24
 2093               	.LM176:
 2094 05e2 00D0      		rcall randscaleval
 2095 05e4 8093 0000 		sts ch1scale,r24
 2096               	.LBB6:
 2097               	.LM177:
 2098 05e8 E091 0000 		lds r30,ch1song.0
 2099 05ec F091 0000 		lds r31,(ch1song.0)+1
 2100 05f0 8091 0000 		lds r24,ch1noteptr.2
 2101 05f4 9091 0000 		lds r25,(ch1noteptr.2)+1
 2102 05f8 0280      		ldd __tmp_reg__,Z+2
 2103 05fa F381      		ldd r31,Z+3
 2104 05fc E02D      		mov r30,__tmp_reg__
 2105 05fe E80F      		add r30,r24
 2106 0600 F91F      		adc r31,r25
 2107 0602 0196      		adiw r24,1
 2108 0604 9093 0000 		sts (ch1noteptr.2)+1,r25
 2109 0608 8093 0000 		sts ch1noteptr.2,r24
 2110               	/* #APP */
 2111 060c C895      		lpm
 2112 060e 802D      		mov r24, r0
 2113               		
 2114               	/* #NOAPP */
 2115               	.LBE6:
 2116               	.LM178:
 2117 0610 9091 0000 		lds r25,ch1scale
 2118 0614 282F      		mov r18,r24
 2119 0616 3327      		clr r19
GAS LISTING /var/folders/co/coknbUWaExmsbK3adiW3-++++TI/-Tmp-//cck6ifVE.s 			page 37


 2120 0618 892F      		mov r24,r25
 2121 061a 9927      		clr r25
 2122 061c 732F      		mov r23,r19
 2123 061e 622F      		mov r22,r18
 2124 0620 00D0      		rcall __mulhi3
 2125 0622 892F      		mov r24,r25
 2126 0624 9927      		clr r25
 2127 0626 8093 0000 		sts temp.4,r24
 2128               	.LM179:
 2129 062a 8B9B      		sbis 49-0x20,3
 2130 062c 00C0      		rjmp .L134
 2131               	.LM180:
 2132 062e 00D0      		rcall pickmaster
 2133 0630 8093 0000 		sts masterpinmask,r24
 2134               	.L134:
 2135               	.LM181:
 2136               	/* #APP */
 2137 0634 F894      		cli
 2138               	.LM182:
 2139               	/* #NOAPP */
 2140 0636 8091 0000 		lds r24,temp.4
 2141 063a 8093 0000 		sts ch1nextnote,r24
 2142               	.LM183:
 2143 063e 8E9A      		sbi 49-0x20,6
 2144               	.LM184:
 2145               	/* #APP */
 2146 0640 7894      		sei
 2147               	.LM185:
 2148               	/* #NOAPP */
 2149 0642 00C0      		rjmp .L155
 2150               	.L133:
 2151               	.LM186:
 2152 0644 8A99      		sbic 49-0x20,2
 2153 0646 00C0      		rjmp .L135
 2154 0648 8B99      		sbic 49-0x20,3
 2155 064a 00C0      		rjmp .L135
 2156 064c 8F99      		sbic 49-0x20,7
 2157 064e 00C0      		rjmp .L135
 2158               	.LM187:
 2159 0650 00D0      		rcall pickasong
 2160 0652 9093 0000 		sts (ch2song.1)+1,r25
 2161 0656 8093 0000 		sts ch2song.1,r24
 2162               	.LM188:
 2163 065a 1092 0000 		sts (ch2noteptr.3)+1,__zero_reg__
 2164 065e 1092 0000 		sts ch2noteptr.3,__zero_reg__
 2165               	.LM189:
 2166 0662 862D      		mov r24,r6
 2167 0664 00D0      		rcall pickapin
 2168 0666 782E      		mov r7,r24
 2169               	.LM190:
 2170 0668 00D0      		rcall randscaleval
 2171 066a 8093 0000 		sts ch2scale,r24
 2172               	.LBB7:
 2173               	.LM191:
 2174 066e E091 0000 		lds r30,ch2song.1
 2175 0672 F091 0000 		lds r31,(ch2song.1)+1
 2176 0676 8091 0000 		lds r24,ch2noteptr.3
GAS LISTING /var/folders/co/coknbUWaExmsbK3adiW3-++++TI/-Tmp-//cck6ifVE.s 			page 38


 2177 067a 9091 0000 		lds r25,(ch2noteptr.3)+1
 2178 067e 0280      		ldd __tmp_reg__,Z+2
 2179 0680 F381      		ldd r31,Z+3
 2180 0682 E02D      		mov r30,__tmp_reg__
 2181 0684 E80F      		add r30,r24
 2182 0686 F91F      		adc r31,r25
 2183 0688 0196      		adiw r24,1
 2184 068a 9093 0000 		sts (ch2noteptr.3)+1,r25
 2185 068e 8093 0000 		sts ch2noteptr.3,r24
 2186               	/* #APP */
 2187 0692 C895      		lpm
 2188 0694 802D      		mov r24, r0
 2189               		
 2190               	/* #NOAPP */
 2191               	.LBE7:
 2192               	.LM192:
 2193 0696 9091 0000 		lds r25,ch2scale
 2194 069a 282F      		mov r18,r24
 2195 069c 3327      		clr r19
 2196 069e 892F      		mov r24,r25
 2197 06a0 9927      		clr r25
 2198 06a2 732F      		mov r23,r19
 2199 06a4 622F      		mov r22,r18
 2200 06a6 00D0      		rcall __mulhi3
 2201 06a8 892F      		mov r24,r25
 2202 06aa 9927      		clr r25
 2203 06ac 8093 0000 		sts temp.4,r24
 2204               	.LM193:
 2205 06b0 899B      		sbis 49-0x20,1
 2206 06b2 00C0      		rjmp .L136
 2207               	.LM194:
 2208 06b4 00D0      		rcall pickmaster
 2209 06b6 8093 0000 		sts masterpinmask,r24
 2210               	.L136:
 2211               	.LM195:
 2212               	/* #APP */
 2213 06ba F894      		cli
 2214               	.LM196:
 2215               	/* #NOAPP */
 2216 06bc 8091 0000 		lds r24,temp.4
 2217 06c0 8093 0000 		sts ch2nextnote,r24
 2218               	.LM197:
 2219 06c4 8F9A      		sbi 49-0x20,7
 2220               	.LM198:
 2221               	/* #APP */
 2222 06c6 7894      		sei
 2223               	.LM199:
 2224               	/* #NOAPP */
 2225 06c8 00C0      		rjmp .L155
 2226               	.L135:
 2227               	.LM200:
 2228 06ca 8C9B      		sbis 49-0x20,4
 2229 06cc 00C0      		rjmp .L137
 2230               	.LM201:
 2231 06ce 85E0      		ldi r24,lo8(5)
 2232 06d0 00D0      		rcall randbits
 2233 06d2 885F      		subi r24,lo8(-(8))
GAS LISTING /var/folders/co/coknbUWaExmsbK3adiW3-++++TI/-Tmp-//cck6ifVE.s 			page 39


 2234 06d4 8093 0000 		sts mood,r24
 2235               	.LM202:
 2236 06d8 88E5      		ldi r24,lo8(600)
 2237 06da 92E0      		ldi r25,hi8(600)
 2238 06dc 9093 0000 		sts (mood_count)+1,r25
 2239 06e0 8093 0000 		sts mood_count,r24
 2240               	.LM203:
 2241 06e4 8C98      		cbi 49-0x20,4
 2242               	.LM204:
 2243 06e6 00C0      		rjmp .L155
 2244               	.L137:
 2245               	.LM205:
 2246 06e8 81B5      		in r24,65-0x20
 2247 06ea 8064      		ori r24,lo8(64)
 2248 06ec 81BD      		out 65-0x20,r24
 2249               	.LM206:
 2250 06ee 899B      		sbis 49-0x20,1
 2251 06f0 00C0      		rjmp .L138
 2252 06f2 8B9B      		sbis 49-0x20,3
 2253 06f4 00C0      		rjmp .L138
 2254               	.LM207:
 2255 06f6 85B7      		in r24,85-0x20
 2256 06f8 877E      		andi r24,lo8(-25)
 2257 06fa 8061      		ori r24,lo8(16)
 2258 06fc 85BF      		out 85-0x20,r24
 2259               	.LM208:
 2260 06fe 85B7      		in r24,85-0x20
 2261 0700 8062      		ori r24,lo8(32)
 2262 0702 85BF      		out 85-0x20,r24
 2263               	/* #APP */
 2264 0704 8895      		sleep
 2265               		
 2266               	/* #NOAPP */
 2267 0706 00C0      		rjmp .L154
 2268               	.L138:
 2269               	.LM209:
 2270 0708 85B7      		in r24,85-0x20
 2271 070a 877E      		andi r24,lo8(-25)
 2272 070c 85BF      		out 85-0x20,r24
 2273               	.LM210:
 2274 070e 85B7      		in r24,85-0x20
 2275 0710 8062      		ori r24,lo8(32)
 2276 0712 85BF      		out 85-0x20,r24
 2277               	/* #APP */
 2278 0714 8895      		sleep
 2279               		
 2280               	/* #NOAPP */
 2281               	.L154:
 2282 0716 85B7      		in r24,85-0x20
 2283 0718 8F7D      		andi r24,lo8(-33)
 2284 071a 85BF      		out 85-0x20,r24
 2285               	.L155:
 2286 071c 00D0      		rcall still_dark
 2287 071e 8823      		tst r24
 2288 0720 01F0      		breq .+2
 2289 0722 00C0      		rjmp .L150
 2290               	/* epilogue: frame size=0 */
GAS LISTING /var/folders/co/coknbUWaExmsbK3adiW3-++++TI/-Tmp-//cck6ifVE.s 			page 40


 2291 0724 0895      		ret
 2292               	/* epilogue end (size=1) */
 2293               	/* function lighted_fireflies size 356 (355) */
 2294               	.LFE16:
 2296               	.global	main
 2298               	main:
 2299               	.LFB17:
 2300               	.LM211:
 2301               	/* prologue: frame size=0 */
 2302 0726 C0E0      		ldi r28,lo8(__stack - 0)
 2303 0728 D0E0      		ldi r29,hi8(__stack - 0)
 2304 072a DEBF      		out __SP_H__,r29
 2305 072c CDBF      		out __SP_L__,r28
 2306               	/* prologue end (size=4) */
 2307               	.LBB8:
 2308               	.LBB9:
 2309               	.LM212:
 2310 072e 88E1      		ldi r24,lo8(24)
 2311 0730 90E0      		ldi r25,hi8(24)
 2312 0732 2DE0      		ldi r18,lo8(13)
 2313               	/* #APP */
 2314 0734 0FB6      		in __tmp_reg__,__SREG__
 2315 0736 F894      		cli
 2316 0738 A895      		wdr
 2317 073a 81BD      		out 33,r24
 2318 073c 0FBE      		out __SREG__,__tmp_reg__
 2319 073e 21BD      		out 33,r18
 2320               	.LM213:
 2321               	/* #NOAPP */
 2322 0740 81B5      		in r24,65-0x20
 2323 0742 8064      		ori r24,lo8(64)
 2324 0744 81BD      		out 65-0x20,r24
 2325               	.LM214:
 2326 0746 8FEF      		ldi r24,lo8(-1)
 2327 0748 87BB      		out 55-0x20,r24
 2328               	.LM215:
 2329 074a 8DEE      		ldi r24,lo8(-19)
 2330 074c 88BB      		out 56-0x20,r24
 2331               	.LM216:
 2332 074e 80B5      		in r24,64-0x20
 2333 0750 8860      		ori r24,lo8(8)
 2334 0752 80BD      		out 64-0x20,r24
 2335               	.LM217:
 2336 0754 80B5      		in r24,64-0x20
 2337 0756 8260      		ori r24,lo8(2)
 2338 0758 80BD      		out 64-0x20,r24
 2339               	.LM218:
 2340 075a 80B5      		in r24,64-0x20
 2341 075c 8160      		ori r24,lo8(1)
 2342 075e 80BD      		out 64-0x20,r24
 2343               	.LM219:
 2344 0760 92E0      		ldi r25,lo8(2)
 2345 0762 9ABD      		out 74-0x20,r25
 2346               	.LM220:
 2347 0764 93BF      		out 83-0x20,r25
 2348               	.LM221:
 2349 0766 89E1      		ldi r24,lo8(25)
GAS LISTING /var/folders/co/coknbUWaExmsbK3adiW3-++++TI/-Tmp-//cck6ifVE.s 			page 41


 2350 0768 89BD      		out 73-0x20,r24
 2351               	.LBB10:
 2352               	.LM222:
 2353 076a 80E8      		ldi r24,lo8(-128)
 2354               	/* #APP */
 2355 076c 0FB6      		in __tmp_reg__,__SREG__
 2356 076e F894      		cli
 2357 0770 86BD      		out 38, r24
 2358 0772 96BD      		out 38, r25
 2359 0774 0FBE      		out __SREG__, __tmp_reg__
 2360               	/* #NOAPP */
 2361               	.LBE10:
 2362               	.LM223:
 2363 0776 80E1      		ldi r24,lo8(16)
 2364 0778 89BF      		out 89-0x20,r24
 2365               	.LM224:
 2366 077a 81B5      		in r24,65-0x20
 2367 077c 8064      		ori r24,lo8(64)
 2368 077e 81BD      		out 65-0x20,r24
 2369               	.LBE9:
 2370               	.LBE8:
 2371               	.LM225:
 2372 0780 8824      		clr r8
 2373 0782 782C      		mov r7,r8
 2374 0784 682C      		mov r6,r8
 2375 0786 582C      		mov r5,r8
 2376 0788 482C      		mov r4,r8
 2377 078a 382C      		mov r3,r8
 2378 078c 282C      		mov r2,r8
 2379               	.LM226:
 2380 078e 81BA      		out 49-0x20,r8
 2381               	.LM227:
 2382 0790 8092 0000 		sts waiting_for_dark,r8
 2383               	.LM228:
 2384               	/* #APP */
 2385 0794 7894      		sei
 2386               	.LM229:
 2387               	/* #NOAPP */
 2388 0796 00D0      		rcall showbootup
 2389               	.L158:
 2390               	.LM230:
 2391 0798 00D0      		rcall randwaitval
 2392 079a 8093 0000 		sts ch1restcount,r24
 2393               	.LM231:
 2394 079e 00D0      		rcall randwaitval
 2395 07a0 8093 0000 		sts ch2restcount,r24
 2396               	.LM232:
 2397 07a4 8824      		clr r8
 2398 07a6 782C      		mov r7,r8
 2399 07a8 682C      		mov r6,r8
 2400 07aa 582C      		mov r5,r8
 2401 07ac 482C      		mov r4,r8
 2402 07ae 382C      		mov r3,r8
 2403 07b0 282C      		mov r2,r8
 2404               	.LM233:
 2405 07b2 81BA      		out 49-0x20,r8
 2406               	.LM234:
GAS LISTING /var/folders/co/coknbUWaExmsbK3adiW3-++++TI/-Tmp-//cck6ifVE.s 			page 42


 2407 07b4 899A      		sbi 49-0x20,1
 2408               	.LM235:
 2409 07b6 8B9A      		sbi 49-0x20,3
 2410               	.LM236:
 2411 07b8 00D0      		rcall lighted_fireflies
 2412               	.LM237:
 2413 07ba 00C0      		rjmp .L158
 2414               	/* epilogue: frame size=0 */
 2415               	/* epilogue: noreturn */
 2416               	/* epilogue end (size=0) */
 2417               	/* function main size 87 (83) */
 2418               	.LFE17:
 2420               		.comm ch1restcount,1,1
 2421               		.comm ch2restcount,1,1
 2422               		.comm ch1nextnote,1,1
 2423               		.comm ch2nextnote,1,1
 2424               		.comm ch1scale,1,1
 2425               		.comm ch2scale,1,1
 2426               		.comm ch1nextscale,1,1
 2427               		.comm ch2nextscale,1,1
 2428               		.comm masterpinmask,1,1
 2429               		.comm waiting_for_dark,1,1
 2430               		.comm is_dark,1,1
 2431               	.Letext0:
GAS LISTING /var/folders/co/coknbUWaExmsbK3adiW3-++++TI/-Tmp-//cck6ifVE.s 			page 43


DEFINED SYMBOLS
                            *ABS*:00000000 firefly.c
/var/folders/co/coknbUWaExmsbK3adiW3-++++TI/-Tmp-//cck6ifVE.s:3      *ABS*:0000003f __SREG__
/var/folders/co/coknbUWaExmsbK3adiW3-++++TI/-Tmp-//cck6ifVE.s:4      *ABS*:0000003e __SP_H__
/var/folders/co/coknbUWaExmsbK3adiW3-++++TI/-Tmp-//cck6ifVE.s:5      *ABS*:0000003d __SP_L__
/var/folders/co/coknbUWaExmsbK3adiW3-++++TI/-Tmp-//cck6ifVE.s:6      *ABS*:00000000 __tmp_reg__
/var/folders/co/coknbUWaExmsbK3adiW3-++++TI/-Tmp-//cck6ifVE.s:7      *ABS*:00000001 __zero_reg__
/var/folders/co/coknbUWaExmsbK3adiW3-++++TI/-Tmp-//cck6ifVE.s:22     .data:00000000 mood_count
/var/folders/co/coknbUWaExmsbK3adiW3-++++TI/-Tmp-//cck6ifVE.s:27     .data:00000002 mood
/var/folders/co/coknbUWaExmsbK3adiW3-++++TI/-Tmp-//cck6ifVE.s:33     .progmem.data:00000000 version
/var/folders/co/coknbUWaExmsbK3adiW3-++++TI/-Tmp-//cck6ifVE.s:38     .progmem.data:0000002f about
/var/folders/co/coknbUWaExmsbK3adiW3-++++TI/-Tmp-//cck6ifVE.s:46     .progmem.data:000000ec bitmasks
/var/folders/co/coknbUWaExmsbK3adiW3-++++TI/-Tmp-//cck6ifVE.s:60     .data:00000003 songs
/var/folders/co/coknbUWaExmsbK3adiW3-++++TI/-Tmp-//cck6ifVE.s:791    .data:0000003d song2a
/var/folders/co/coknbUWaExmsbK3adiW3-++++TI/-Tmp-//cck6ifVE.s:671    .data:00000039 song2b
/var/folders/co/coknbUWaExmsbK3adiW3-++++TI/-Tmp-//cck6ifVE.s:529    .data:00000035 song2c
/var/folders/co/coknbUWaExmsbK3adiW3-++++TI/-Tmp-//cck6ifVE.s:418    .data:00000031 song2d
/var/folders/co/coknbUWaExmsbK3adiW3-++++TI/-Tmp-//cck6ifVE.s:270    .data:0000002d song2e
/var/folders/co/coknbUWaExmsbK3adiW3-++++TI/-Tmp-//cck6ifVE.s:165    .data:00000029 song2f
/var/folders/co/coknbUWaExmsbK3adiW3-++++TI/-Tmp-//cck6ifVE.s:85     .data:00000025 song2g
/var/folders/co/coknbUWaExmsbK3adiW3-++++TI/-Tmp-//cck6ifVE.s:80     .data:00000023 bootsongs
/var/folders/co/coknbUWaExmsbK3adiW3-++++TI/-Tmp-//cck6ifVE.s:922    .data:00000041 bootsong
/var/folders/co/coknbUWaExmsbK3adiW3-++++TI/-Tmp-//cck6ifVE.s:92     .progmem.data:000000f5 song2gnotes
/var/folders/co/coknbUWaExmsbK3adiW3-++++TI/-Tmp-//cck6ifVE.s:172    .progmem.data:00000139 song2fnotes
/var/folders/co/coknbUWaExmsbK3adiW3-++++TI/-Tmp-//cck6ifVE.s:277    .progmem.data:00000196 song2enotes
/var/folders/co/coknbUWaExmsbK3adiW3-++++TI/-Tmp-//cck6ifVE.s:425    .progmem.data:0000021e song2dnotes
/var/folders/co/coknbUWaExmsbK3adiW3-++++TI/-Tmp-//cck6ifVE.s:536    .progmem.data:00000281 song2cnotes
/var/folders/co/coknbUWaExmsbK3adiW3-++++TI/-Tmp-//cck6ifVE.s:678    .progmem.data:00000303 song2bnotes
/var/folders/co/coknbUWaExmsbK3adiW3-++++TI/-Tmp-//cck6ifVE.s:798    .progmem.data:0000036f song2anotes
/var/folders/co/coknbUWaExmsbK3adiW3-++++TI/-Tmp-//cck6ifVE.s:929    .progmem.data:000003e6 bootsongnotes
                             .bss:00000000 x.8
/var/folders/co/coknbUWaExmsbK3adiW3-++++TI/-Tmp-//cck6ifVE.s:953    .text:00000000 __vector_10
                            *COM*:00000001 waiting_for_dark
                            *COM*:00000001 ch1nextnote
                            *COM*:00000001 ch1restcount
                            *COM*:00000001 ch2nextnote
                            *COM*:00000001 ch2restcount
                            *COM*:00000001 masterpinmask
/var/folders/co/coknbUWaExmsbK3adiW3-++++TI/-Tmp-//cck6ifVE.s:1090   .text:000000c2 von_142
/var/folders/co/coknbUWaExmsbK3adiW3-++++TI/-Tmp-//cck6ifVE.s:1092   .text:000000c4 turnon_142
/var/folders/co/coknbUWaExmsbK3adiW3-++++TI/-Tmp-//cck6ifVE.s:1096   .text:000000ca turnoff_142
/var/folders/co/coknbUWaExmsbK3adiW3-++++TI/-Tmp-//cck6ifVE.s:1098   .text:000000cc done_142
/var/folders/co/coknbUWaExmsbK3adiW3-++++TI/-Tmp-//cck6ifVE.s:1112   .text:000000dc von_148
/var/folders/co/coknbUWaExmsbK3adiW3-++++TI/-Tmp-//cck6ifVE.s:1114   .text:000000de turnon_148
/var/folders/co/coknbUWaExmsbK3adiW3-++++TI/-Tmp-//cck6ifVE.s:1118   .text:000000e4 turnoff_148
/var/folders/co/coknbUWaExmsbK3adiW3-++++TI/-Tmp-//cck6ifVE.s:1120   .text:000000e6 done_148
/var/folders/co/coknbUWaExmsbK3adiW3-++++TI/-Tmp-//cck6ifVE.s:1144   .text:000000f4 showbootup
/var/folders/co/coknbUWaExmsbK3adiW3-++++TI/-Tmp-//cck6ifVE.s:1352   .data:00000048 lfsr.6
/var/folders/co/coknbUWaExmsbK3adiW3-++++TI/-Tmp-//cck6ifVE.s:1357   .text:00000216 randbits
/var/folders/co/coknbUWaExmsbK3adiW3-++++TI/-Tmp-//cck6ifVE.s:1414   .text:0000025e randwaitval
/var/folders/co/coknbUWaExmsbK3adiW3-++++TI/-Tmp-//cck6ifVE.s:1452   .text:00000290 randscaleval
/var/folders/co/coknbUWaExmsbK3adiW3-++++TI/-Tmp-//cck6ifVE.s:1487   .text:000002ba pickapin
/var/folders/co/coknbUWaExmsbK3adiW3-++++TI/-Tmp-//cck6ifVE.s:949    .bss:00000001 ticker.7
/var/folders/co/coknbUWaExmsbK3adiW3-++++TI/-Tmp-//cck6ifVE.s:1555   .text:0000030a pickmaster
/var/folders/co/coknbUWaExmsbK3adiW3-++++TI/-Tmp-//cck6ifVE.s:1596   .text:00000338 pickasong
/var/folders/co/coknbUWaExmsbK3adiW3-++++TI/-Tmp-//cck6ifVE.s:1625   .text:00000358 read_adc
/var/folders/co/coknbUWaExmsbK3adiW3-++++TI/-Tmp-//cck6ifVE.s:1679   .data:0000004a debounce.5
GAS LISTING /var/folders/co/coknbUWaExmsbK3adiW3-++++TI/-Tmp-//cck6ifVE.s 			page 44


/var/folders/co/coknbUWaExmsbK3adiW3-++++TI/-Tmp-//cck6ifVE.s:1683   .text:0000038e still_dark
                            *COM*:00000001 is_dark
/var/folders/co/coknbUWaExmsbK3adiW3-++++TI/-Tmp-//cck6ifVE.s:1735   .text:000003d0 __vector_12
/var/folders/co/coknbUWaExmsbK3adiW3-++++TI/-Tmp-//cck6ifVE.s:1818   .text:00000462 read_temperature
/var/folders/co/coknbUWaExmsbK3adiW3-++++TI/-Tmp-//cck6ifVE.s:1836   .text:0000046a wait_for_dark
/var/folders/co/coknbUWaExmsbK3adiW3-++++TI/-Tmp-//cck6ifVE.s:1552   .bss:00000002 ch1song.0
/var/folders/co/coknbUWaExmsbK3adiW3-++++TI/-Tmp-//cck6ifVE.s:1884   .bss:00000004 ch2song.1
/var/folders/co/coknbUWaExmsbK3adiW3-++++TI/-Tmp-//cck6ifVE.s:1885   .bss:00000006 ch1noteptr.2
/var/folders/co/coknbUWaExmsbK3adiW3-++++TI/-Tmp-//cck6ifVE.s:1886   .bss:00000008 ch2noteptr.3
/var/folders/co/coknbUWaExmsbK3adiW3-++++TI/-Tmp-//cck6ifVE.s:1887   .bss:0000000a temp.4
/var/folders/co/coknbUWaExmsbK3adiW3-++++TI/-Tmp-//cck6ifVE.s:1891   .text:000004a2 lighted_fireflies
                            *COM*:00000001 ch1scale
                            *COM*:00000001 ch2scale
/var/folders/co/coknbUWaExmsbK3adiW3-++++TI/-Tmp-//cck6ifVE.s:2298   .text:00000726 main
                            *COM*:00000001 ch1nextscale
                            *COM*:00000001 ch2nextscale

UNDEFINED SYMBOLS
__do_copy_data
__do_clear_bss
__mulhi3
__stack
